Certificate:
    Data:
        Version: 3 (0x2)
        Serial Number: 268435683 (0x100000e3)
        Signature Algorithm: sha256WithRSAEncryption
        Issuer: C=DE, ST=Hessen, O=privacyidea, CN=CA001
        Validity
            Not Before: Sep 25 05:58:13 2019 GMT
            Not After : Sep 24 05:58:13 2020 GMT
        Subject: C=DE, ST=Hessen, O=privacyidea, CN=usercert
        Subject Public Key Info:
            Public Key Algorithm: rsaEncryption
                RSA Public-Key: (2048 bit)
                Modulus:
                    00:dc:2f:d1:5f:29:97:d4:7c:c3:53:c8:30:bd:4b:
                    67:70:2c:24:6b:b8:5e:eb:21:7a:48:12:56:7c:81:
                    5c:48:75:b6:68:eb:f6:f2:98:4e:50:51:d1:7f:6c:
                    73:f3:0a:a7:ae:be:48:5e:e5:d6:e1:d9:2a:7c:32:
                    6e:4e:fd:08:f6:5a:54:49:23:73:c3:b9:07:18:d1:
                    ef:b3:ac:f8:8a:dc:94:96:a4:90:3a:8e:74:df:e6:
                    0d:37:1b:bd:5b:b7:25:1a:56:39:da:6f:91:aa:5e:
                    1c:74:f3:f9:7c:14:01:83:12:65:76:c7:bb:fe:36:
                    5b:95:e9:72:65:83:ed:3e:98:30:71:fa:87:dd:a3:
                    36:5a:30:03:2e:26:e0:61:d1:bf:02:3f:b6:06:1f:
                    4a:89:28:1c:5c:a2:ff:4e:be:94:e6:8c:e0:da:82:
                    f1:9d:29:32:48:30:73:b4:04:f6:42:1e:be:f7:e2:
                    32:32:27:3c:9d:89:2f:70:3e:85:9a:6f:5c:c5:09:
                    c0:8c:32:2f:72:22:c9:d2:95:1f:b6:ac:72:60:72:
                    b7:82:4d:6b:ce:5b:e3:00:d0:d2:2f:58:c6:e0:10:
                    e5:51:ca:4d:3b:2e:e6:7e:ab:84:d6:56:f1:93:35:
                    a0:93:64:26:81:75:2f:91:b5:16:06:38:0b:db:cc:
                    2d:07
                Exponent: 65537 (0x10001)
        X509v3 extensions:
            X509v3 Key Usage: 
                Digital Signature, Key Encipherment
            X509v3 Basic Constraints: 
                CA:FALSE
            Netscape Cert Type: 
                SSL Server
            Netscape Comment: 
                OpenSSL Generated Server Certificate
            X509v3 Subject Key Identifier: 
                FC:14:D1:F0:4B:8D:00:90:F2:F5:B8:71:9E:4E:97:C3:92:54:AD:0B
            X509v3 Authority Key Identifier: 
                keyid:F4:A7:C0:CC:91:46:AF:64:F3:91:F2:27:F8:C8:B2:6F:8A:87:32:73
                DirName:/C=DE/ST=Hessen/O=privacyidea/CN=CA001
                serial:FB:C8:EB:AC:83:CD:12:07

            X509v3 Extended Key Usage: 
                TLS Web Server Authentication
    Signature Algorithm: sha256WithRSAEncryption
         2c:48:57:3b:37:9b:9f:a2:12:07:84:73:ff:11:5b:22:8e:89:
         ed:7c:ff:34:11:35:05:51:65:1d:0b:35:4b:c5:a0:45:db:4d:
         9c:c0:f3:8b:b9:a1:dc:83:18:99:69:7e:01:1e:1d:69:14:34:
         55:5d:08:3c:b7:c1:5f:2d:50:3d:5a:12:3d:63:1e:0d:b2:9a:
         45:de:55:80:af:8c:67:c3:36:38:6a:39:7f:82:6e:a0:62:20:
         49:9d:5e:3b:ab:d8:d0:20:e7:e2:6b:b3:ff:09:0b:a6:3a:e3:
         68:97:e8:32:27:77:88:52:d1:ad:ee:05:3e:8b:17:8d:c0:5a:
         9a:56:bc:2f:4c:75:2f:09:1b:26:76:9c:d6:e0:a7:b3:fe:3b:
         79:1f:e1:67:47:64:49:1f:82:55:ea:a3:55:97:f1:0a:4b:2b:
         1a:a0:57:44:ba:63:72:e8:c4:19:f4:6f:6f:86:78:d6:d1:11:
         da:1f:c6:1b:c9:53:f8:63:e1:07:68:55:29:35:9a:fb:ed:8c:
         58:bc:d0:f1:32:4d:cf:bd:b4:3d:7f:aa:7c:2b:ea:b9:b7:53:
         e3:a7:71:32:4e:13:d8:fd:20:8a:4e:cf:34:2c:25:a1:0c:5a:
         fe:08:36:0c:df:0b:4e:32:56:4d:f5:e6:f1:0f:51:be:32:84:
         2a:b2:16:42
-----BEGIN CERTIFICATE-----
MIIEGTCCAwGgAwIBAgIEEAAA4zANBgkqhkiG9w0BAQsFADBEMQswCQYDVQQGEwJE
RTEPMA0GA1UECAwGSGVzc2VuMRQwEgYDVQQKDAtwcml2YWN5aWRlYTEOMAwGA1UE
AwwFQ0EwMDEwHhcNMTkwOTI1MDU1ODEzWhcNMjAwOTI0MDU1ODEzWjBHMQswCQYD
VQQGEwJERTEPMA0GA1UECAwGSGVzc2VuMRQwEgYDVQQKDAtwcml2YWN5aWRlYTER
MA8GA1UEAwwIdXNlcmNlcnQwggEiMA0GCSqGSIb3DQEBAQUAA4IBDwAwggEKAoIB
AQDcL9FfKZfUfMNTyDC9S2dwLCRruF7rIXpIElZ8gVxIdbZo6/bymE5QUdF/bHPz
Cqeuvkhe5dbh2Sp8Mm5O/Qj2WlRJI3PDuQcY0e+zrPiK3JSWpJA6jnTf5g03G71b
tyUaVjnab5GqXhx08/l8FAGDEmV2x7v+NluV6XJlg+0+mDBx+ofdozZaMAMuJuBh
0b8CP7YGH0qJKBxcov9OvpTmjODagvGdKTJIMHO0BPZCHr734jIyJzydiS9wPoWa
b1zFCcCMMi9yIsnSlR+2rHJgcreCTWvOW+MA0NIvWMbgEOVRyk07LuZ+q4TWVvGT
NaCTZCaBdS+RtRYGOAvbzC0HAgMBAAGjggEOMIIBCjALBgNVHQ8EBAMCBaAwCQYD
VR0TBAIwADARBglghkgBhvhCAQEEBAMCBkAwMwYJYIZIAYb4QgENBCYWJE9wZW5T
U0wgR2VuZXJhdGVkIFNlcnZlciBDZXJ0aWZpY2F0ZTAdBgNVHQ4EFgQU/BTR8EuN
AJDy9bhxnk6Xw5JUrQswdAYDVR0jBG0wa4AU9KfAzJFGr2TzkfIn+Miyb4qHMnOh
SKRGMEQxCzAJBgNVBAYTAkRFMQ8wDQYDVQQIDAZIZXNzZW4xFDASBgNVBAoMC3By
aXZhY3lpZGVhMQ4wDAYDVQQDDAVDQTAwMYIJAPvI66yDzRIHMBMGA1UdJQQMMAoG
CCsGAQUFBwMBMA0GCSqGSIb3DQEBCwUAA4IBAQAsSFc7N5ufohIHhHP/EVsijont
fP80ETUFUWUdCzVLxaBF202cwPOLuaHcgxiZaX4BHh1pFDRVXQg8t8FfLVA9WhI9
Yx4NsppF3lWAr4xnwzY4ajl/gm6gYiBJnV47q9jQIOfia7P/CQumOuNol+gyJ3eI
UtGt7gU+ixeNwFqaVrwvTHUvCRsmdpzW4Kez/jt5H+FnR2RJH4JV6qNVl/EKSysa
oFdEumNy6MQZ9G9vhnjW0RHaH8YbyVP4Y+EHaFUpNZr77YxYvNDxMk3PvbQ9f6p8
K+q5t1Pjp3EyThPY/SCKTs80LCWhDFr+CDYM3wtOMlZN9ebxD1G+MoQqshZC
-----END CERTIFICATE-----
