Certificate:
    Data:
        Version: 3 (0x2)
        Serial Number: 268435664 (0x100000d0)
        Signature Algorithm: sha256WithRSAEncryption
        Issuer: C=DE, ST=Hessen, O=privacyidea, CN=CA001
        Validity
            Not Before: Sep 25 09:46:48 2019 GMT
            Not After : Sep 24 09:46:48 2020 GMT
        Subject: C=DE, ST=Hessen, O=privacyidea, CN=requester.localdomain
        Subject Public Key Info:
            Public Key Algorithm: rsaEncryption
                RSA Public-Key: (2048 bit)
                Modulus:
                    00:cd:be:14:4f:fa:ce:01:3f:42:22:1b:1d:9c:af:
                    dd:92:d2:7f:db:6c:b7:3e:39:43:43:6b:13:03:f1:
                    05:f4:07:74:bc:76:69:28:0b:af:19:8e:d7:fc:e3:
                    cd:c6:58:f2:ca:7f:08:6d:53:fc:07:02:44:24:c6:
                    b4:34:4c:8c:04:fe:33:0e:40:e2:20:ba:02:73:5a:
                    f7:f5:4f:63:6e:cc:c6:b6:df:54:1d:37:39:7d:51:
                    36:26:5f:bd:dc:3f:a8:8b:6b:a2:ae:b6:9d:d6:21:
                    e7:df:41:b8:7a:28:2a:68:48:ca:a8:2d:ed:e1:e9:
                    46:5e:5a:72:6d:b4:84:38:87:91:fd:94:11:0b:28:
                    84:c6:c2:2f:2a:fb:01:f9:36:7a:09:75:d1:33:88:
                    3c:73:41:5b:c8:bf:94:89:70:a1:f0:c0:b9:2e:50:
                    53:1e:b1:17:64:69:f4:2d:81:e0:a9:0d:0e:32:e9:
                    ba:55:8a:85:f1:1b:6f:49:79:b4:7f:88:c3:0d:3e:
                    54:88:9b:3d:1f:38:8c:04:f3:ee:6a:63:2b:f5:c6:
                    db:b4:83:aa:c4:78:41:3a:7d:4b:e1:c8:3e:71:ca:
                    1b:61:59:ea:c6:c4:ca:32:5e:c9:e9:bf:12:29:e6:
                    c6:c3:63:fe:a0:55:da:7a:f1:60:98:4d:26:ed:fa:
                    70:2d
                Exponent: 65537 (0x10001)
        X509v3 extensions:
            X509v3 Key Usage: 
                Digital Signature, Key Encipherment
            X509v3 Basic Constraints: 
                CA:FALSE
            Netscape Cert Type: 
                SSL Server
            Netscape Comment: 
                OpenSSL Generated Server Certificate
            X509v3 Subject Key Identifier: 
                53:3F:ED:5D:09:07:B3:65:7B:AB:45:C9:24:5B:09:77:80:0A:96:ED
            X509v3 Authority Key Identifier: 
                keyid:F4:A7:C0:CC:91:46:AF:64:F3:91:F2:27:F8:C8:B2:6F:8A:87:32:73
                DirName:/C=DE/ST=Hessen/O=privacyidea/CN=CA001
                serial:FB:C8:EB:AC:83:CD:12:07

            X509v3 Extended Key Usage: 
                TLS Web Server Authentication
    Signature Algorithm: sha256WithRSAEncryption
         52:80:b4:a8:2c:14:1c:85:06:59:83:d6:ee:70:df:ec:43:09:
         9b:7f:1e:ce:a4:a8:58:bc:a0:33:c9:e3:3f:34:62:55:5d:cc:
         53:00:44:5d:1f:8b:cc:74:59:be:26:44:69:eb:b7:7e:a2:c4:
         f9:d6:17:d8:76:9e:23:e9:6b:b6:28:49:0a:51:f8:66:b2:76:
         01:5e:83:1f:c0:13:e4:ad:64:3b:f9:30:1a:8d:57:1c:ad:e3:
         cd:7f:11:ad:04:e2:99:15:b9:ff:d9:d2:f7:4e:38:20:ea:73:
         50:f3:09:98:9b:dc:03:19:45:f0:b3:31:af:b4:3d:3c:1a:80:
         e2:fe:53:74:1e:e4:87:fe:20:a8:bc:51:16:cf:d6:78:5f:fc:
         d0:23:b8:a5:63:30:72:13:df:e7:93:c6:47:12:68:20:d6:f4:
         8c:17:54:70:af:fd:d4:e9:9f:1c:11:70:52:7c:07:1f:fd:08:
         ae:88:c9:90:b3:36:ff:30:db:b0:55:b2:75:cb:c6:2c:fd:13:
         f3:4a:e4:cb:52:68:03:1f:d4:27:a7:44:d1:65:78:54:2e:61:
         fe:ba:e6:be:5f:8b:50:fb:e4:49:1d:be:ec:c8:0b:10:15:c8:
         30:16:55:62:ed:4a:ed:85:a1:e5:fe:3f:aa:e7:99:6b:c6:0d:
         77:7d:a6:03
-----BEGIN CERTIFICATE-----
MIIEJjCCAw6gAwIBAgIEEAAA0DANBgkqhkiG9w0BAQsFADBEMQswCQYDVQQGEwJE
RTEPMA0GA1UECAwGSGVzc2VuMRQwEgYDVQQKDAtwcml2YWN5aWRlYTEOMAwGA1UE
AwwFQ0EwMDEwHhcNMTkwOTI1MDk0NjQ4WhcNMjAwOTI0MDk0NjQ4WjBUMQswCQYD
VQQGEwJERTEPMA0GA1UECAwGSGVzc2VuMRQwEgYDVQQKDAtwcml2YWN5aWRlYTEe
MBwGA1UEAwwVcmVxdWVzdGVyLmxvY2FsZG9tYWluMIIBIjANBgkqhkiG9w0BAQEF
AAOCAQ8AMIIBCgKCAQEAzb4UT/rOAT9CIhsdnK/dktJ/22y3PjlDQ2sTA/EF9Ad0
vHZpKAuvGY7X/OPNxljyyn8IbVP8BwJEJMa0NEyMBP4zDkDiILoCc1r39U9jbszG
tt9UHTc5fVE2Jl+93D+oi2uirrad1iHn30G4eigqaEjKqC3t4elGXlpybbSEOIeR
/ZQRCyiExsIvKvsB+TZ6CXXRM4g8c0FbyL+UiXCh8MC5LlBTHrEXZGn0LYHgqQ0O
Mum6VYqF8RtvSXm0f4jDDT5UiJs9HziMBPPuamMr9cbbtIOqxHhBOn1L4cg+ccob
YVnqxsTKMl7J6b8SKebGw2P+oFXaevFgmE0m7fpwLQIDAQABo4IBDjCCAQowCwYD
VR0PBAQDAgWgMAkGA1UdEwQCMAAwEQYJYIZIAYb4QgEBBAQDAgZAMDMGCWCGSAGG
+EIBDQQmFiRPcGVuU1NMIEdlbmVyYXRlZCBTZXJ2ZXIgQ2VydGlmaWNhdGUwHQYD
VR0OBBYEFFM/7V0JB7Nle6tFySRbCXeACpbtMHQGA1UdIwRtMGuAFPSnwMyRRq9k
85HyJ/jIsm+KhzJzoUikRjBEMQswCQYDVQQGEwJERTEPMA0GA1UECAwGSGVzc2Vu
MRQwEgYDVQQKDAtwcml2YWN5aWRlYTEOMAwGA1UEAwwFQ0EwMDGCCQD7yOusg80S
BzATBgNVHSUEDDAKBggrBgEFBQcDATANBgkqhkiG9w0BAQsFAAOCAQEAUoC0qCwU
HIUGWYPW7nDf7EMJm38ezqSoWLygM8njPzRiVV3MUwBEXR+LzHRZviZEaeu3fqLE
+dYX2HaeI+lrtihJClH4ZrJ2AV6DH8AT5K1kO/kwGo1XHK3jzX8RrQTimRW5/9nS
9044IOpzUPMJmJvcAxlF8LMxr7Q9PBqA4v5TdB7kh/4gqLxRFs/WeF/80CO4pWMw
chPf55PGRxJoINb0jBdUcK/91OmfHBFwUnwHH/0IrojJkLM2/zDbsFWydcvGLP0T
80rky1JoAx/UJ6dE0WV4VC5h/rrmvl+LUPvkSR2+7MgLEBXIMBZVYu1K7YWh5f4/
queZa8YNd32mAw==
-----END CERTIFICATE-----
