Certificate:
    Data:
        Version: 3 (0x2)
        Serial Number: 268435699 (0x100000f3)
        Signature Algorithm: sha256WithRSAEncryption
        Issuer: C=DE, ST=Hessen, O=privacyidea, CN=CA001
        Validity
            Not Before: Aug 14 21:23:19 2019 GMT
            Not After : Aug 13 21:23:19 2020 GMT
        Subject: C=DE, ST=Hessen, O=privacyidea, CN=requester.localdomain
        Subject Public Key Info:
            Public Key Algorithm: rsaEncryption
                RSA Public-Key: (2048 bit)
                Modulus:
                    00:cd:be:14:4f:fa:ce:01:3f:42:22:1b:1d:9c:af:
                    dd:92:d2:7f:db:6c:b7:3e:39:43:43:6b:13:03:f1:
                    05:f4:07:74:bc:76:69:28:0b:af:19:8e:d7:fc:e3:
                    cd:c6:58:f2:ca:7f:08:6d:53:fc:07:02:44:24:c6:
                    b4:34:4c:8c:04:fe:33:0e:40:e2:20:ba:02:73:5a:
                    f7:f5:4f:63:6e:cc:c6:b6:df:54:1d:37:39:7d:51:
                    36:26:5f:bd:dc:3f:a8:8b:6b:a2:ae:b6:9d:d6:21:
                    e7:df:41:b8:7a:28:2a:68:48:ca:a8:2d:ed:e1:e9:
                    46:5e:5a:72:6d:b4:84:38:87:91:fd:94:11:0b:28:
                    84:c6:c2:2f:2a:fb:01:f9:36:7a:09:75:d1:33:88:
                    3c:73:41:5b:c8:bf:94:89:70:a1:f0:c0:b9:2e:50:
                    53:1e:b1:17:64:69:f4:2d:81:e0:a9:0d:0e:32:e9:
                    ba:55:8a:85:f1:1b:6f:49:79:b4:7f:88:c3:0d:3e:
                    54:88:9b:3d:1f:38:8c:04:f3:ee:6a:63:2b:f5:c6:
                    db:b4:83:aa:c4:78:41:3a:7d:4b:e1:c8:3e:71:ca:
                    1b:61:59:ea:c6:c4:ca:32:5e:c9:e9:bf:12:29:e6:
                    c6:c3:63:fe:a0:55:da:7a:f1:60:98:4d:26:ed:fa:
                    70:2d
                Exponent: 65537 (0x10001)
        X509v3 extensions:
            X509v3 Key Usage: 
                Digital Signature, Key Encipherment
            X509v3 Basic Constraints: 
                CA:FALSE
            Netscape Cert Type: 
                SSL Server
            Netscape Comment: 
                OpenSSL Generated Server Certificate
            X509v3 Subject Key Identifier: 
                53:3F:ED:5D:09:07:B3:65:7B:AB:45:C9:24:5B:09:77:80:0A:96:ED
            X509v3 Authority Key Identifier: 
                keyid:F4:A7:C0:CC:91:46:AF:64:F3:91:F2:27:F8:C8:B2:6F:8A:87:32:73
                DirName:/C=DE/ST=Hessen/O=privacyidea/CN=CA001
                serial:FB:C8:EB:AC:83:CD:12:07

            X509v3 Extended Key Usage: 
                TLS Web Server Authentication
    Signature Algorithm: sha256WithRSAEncryption
         9e:a4:95:c7:57:ef:39:f3:a9:4d:b9:b9:b9:a6:3b:b6:80:49:
         4a:07:28:9d:d9:7c:d8:2e:91:91:72:b8:8a:3a:b5:0f:24:ff:
         97:74:aa:0b:a9:4a:30:10:d8:bd:27:7c:31:53:5f:55:30:ab:
         b5:a2:a3:c3:d7:f1:cc:67:1a:ff:fa:e9:9e:d0:7c:b9:c1:16:
         eb:9c:72:80:98:b5:e0:5a:91:72:4b:95:ce:c2:79:66:4c:0a:
         be:f4:8d:2d:c7:e3:77:30:c3:ab:b4:5f:e4:b5:51:5c:4c:85:
         d5:89:1f:4e:28:90:e2:89:f8:e3:b2:ee:42:22:c9:31:94:1c:
         62:b8:16:f3:6d:d2:a3:1f:e0:20:9f:04:30:81:52:31:fc:f1:
         57:62:41:7c:2e:4d:3d:94:d7:8f:0c:28:12:0b:fb:29:bc:bc:
         17:8e:9a:d2:1f:9d:e1:95:ac:d1:ff:1c:1a:b7:5b:68:6e:74:
         fe:de:2a:ce:a3:e0:62:7e:bc:1c:42:82:d1:83:f4:aa:f3:bb:
         b5:31:51:c2:c0:8c:d3:dd:e2:c6:8a:60:7d:b6:64:97:04:f9:
         73:88:0f:8f:69:07:19:ed:e4:96:61:b4:e3:fb:bf:c1:e8:c5:
         ee:83:0f:a8:28:1b:3c:b2:6a:96:69:fc:48:45:73:31:7c:f8:
         89:d8:8d:dc
-----BEGIN CERTIFICATE-----
MIIEJjCCAw6gAwIBAgIEEAAA8zANBgkqhkiG9w0BAQsFADBEMQswCQYDVQQGEwJE
RTEPMA0GA1UECAwGSGVzc2VuMRQwEgYDVQQKDAtwcml2YWN5aWRlYTEOMAwGA1UE
AwwFQ0EwMDEwHhcNMTkwODE0MjEyMzE5WhcNMjAwODEzMjEyMzE5WjBUMQswCQYD
VQQGEwJERTEPMA0GA1UECAwGSGVzc2VuMRQwEgYDVQQKDAtwcml2YWN5aWRlYTEe
MBwGA1UEAwwVcmVxdWVzdGVyLmxvY2FsZG9tYWluMIIBIjANBgkqhkiG9w0BAQEF
AAOCAQ8AMIIBCgKCAQEAzb4UT/rOAT9CIhsdnK/dktJ/22y3PjlDQ2sTA/EF9Ad0
vHZpKAuvGY7X/OPNxljyyn8IbVP8BwJEJMa0NEyMBP4zDkDiILoCc1r39U9jbszG
tt9UHTc5fVE2Jl+93D+oi2uirrad1iHn30G4eigqaEjKqC3t4elGXlpybbSEOIeR
/ZQRCyiExsIvKvsB+TZ6CXXRM4g8c0FbyL+UiXCh8MC5LlBTHrEXZGn0LYHgqQ0O
Mum6VYqF8RtvSXm0f4jDDT5UiJs9HziMBPPuamMr9cbbtIOqxHhBOn1L4cg+ccob
YVnqxsTKMl7J6b8SKebGw2P+oFXaevFgmE0m7fpwLQIDAQABo4IBDjCCAQowCwYD
VR0PBAQDAgWgMAkGA1UdEwQCMAAwEQYJYIZIAYb4QgEBBAQDAgZAMDMGCWCGSAGG
+EIBDQQmFiRPcGVuU1NMIEdlbmVyYXRlZCBTZXJ2ZXIgQ2VydGlmaWNhdGUwHQYD
VR0OBBYEFFM/7V0JB7Nle6tFySRbCXeACpbtMHQGA1UdIwRtMGuAFPSnwMyRRq9k
85HyJ/jIsm+KhzJzoUikRjBEMQswCQYDVQQGEwJERTEPMA0GA1UECAwGSGVzc2Vu
MRQwEgYDVQQKDAtwcml2YWN5aWRlYTEOMAwGA1UEAwwFQ0EwMDGCCQD7yOusg80S
BzATBgNVHSUEDDAKBggrBgEFBQcDATANBgkqhkiG9w0BAQsFAAOCAQEAnqSVx1fv
OfOpTbm5uaY7toBJSgcondl82C6RkXK4ijq1DyT/l3SqC6lKMBDYvSd8MVNfVTCr
taKjw9fxzGca//rpntB8ucEW65xygJi14FqRckuVzsJ5ZkwKvvSNLcfjdzDDq7Rf
5LVRXEyF1YkfTiiQ4on447LuQiLJMZQcYrgW823Sox/gIJ8EMIFSMfzxV2JBfC5N
PZTXjwwoEgv7Kby8F46a0h+d4ZWs0f8cGrdbaG50/t4qzqPgYn68HEKC0YP0qvO7
tTFRwsCM093ixopgfbZklwT5c4gPj2kHGe3klmG04/u/wejF7oMPqCgbPLJqlmn8
SEVzMXz4idiN3A==
-----END CERTIFICATE-----
