Certificate:
    Data:
        Version: 3 (0x2)
        Serial Number: 268435682 (0x100000e2)
        Signature Algorithm: sha256WithRSAEncryption
        Issuer: C=DE, ST=Hessen, O=privacyidea, CN=CA001
        Validity
            Not Before: Sep 25 05:58:13 2019 GMT
            Not After : Sep 24 05:58:13 2020 GMT
        Subject: C=DE, ST=Hessen, O=privacyidea, CN=requester.localdomain
        Subject Public Key Info:
            Public Key Algorithm: rsaEncryption
                RSA Public-Key: (2048 bit)
                Modulus:
                    00:cd:be:14:4f:fa:ce:01:3f:42:22:1b:1d:9c:af:
                    dd:92:d2:7f:db:6c:b7:3e:39:43:43:6b:13:03:f1:
                    05:f4:07:74:bc:76:69:28:0b:af:19:8e:d7:fc:e3:
                    cd:c6:58:f2:ca:7f:08:6d:53:fc:07:02:44:24:c6:
                    b4:34:4c:8c:04:fe:33:0e:40:e2:20:ba:02:73:5a:
                    f7:f5:4f:63:6e:cc:c6:b6:df:54:1d:37:39:7d:51:
                    36:26:5f:bd:dc:3f:a8:8b:6b:a2:ae:b6:9d:d6:21:
                    e7:df:41:b8:7a:28:2a:68:48:ca:a8:2d:ed:e1:e9:
                    46:5e:5a:72:6d:b4:84:38:87:91:fd:94:11:0b:28:
                    84:c6:c2:2f:2a:fb:01:f9:36:7a:09:75:d1:33:88:
                    3c:73:41:5b:c8:bf:94:89:70:a1:f0:c0:b9:2e:50:
                    53:1e:b1:17:64:69:f4:2d:81:e0:a9:0d:0e:32:e9:
                    ba:55:8a:85:f1:1b:6f:49:79:b4:7f:88:c3:0d:3e:
                    54:88:9b:3d:1f:38:8c:04:f3:ee:6a:63:2b:f5:c6:
                    db:b4:83:aa:c4:78:41:3a:7d:4b:e1:c8:3e:71:ca:
                    1b:61:59:ea:c6:c4:ca:32:5e:c9:e9:bf:12:29:e6:
                    c6:c3:63:fe:a0:55:da:7a:f1:60:98:4d:26:ed:fa:
                    70:2d
                Exponent: 65537 (0x10001)
        X509v3 extensions:
            X509v3 Key Usage: 
                Digital Signature, Key Encipherment
            X509v3 Basic Constraints: 
                CA:FALSE
            Netscape Cert Type: 
                SSL Server
            Netscape Comment: 
                OpenSSL Generated Server Certificate
            X509v3 Subject Key Identifier: 
                53:3F:ED:5D:09:07:B3:65:7B:AB:45:C9:24:5B:09:77:80:0A:96:ED
            X509v3 Authority Key Identifier: 
                keyid:F4:A7:C0:CC:91:46:AF:64:F3:91:F2:27:F8:C8:B2:6F:8A:87:32:73
                DirName:/C=DE/ST=Hessen/O=privacyidea/CN=CA001
                serial:FB:C8:EB:AC:83:CD:12:07

            X509v3 Extended Key Usage: 
                TLS Web Server Authentication
    Signature Algorithm: sha256WithRSAEncryption
         9c:1e:77:3c:e5:38:bd:6a:69:5e:b9:46:c4:8f:49:19:a4:65:
         c9:e5:55:5f:eb:7e:38:1c:a2:e2:cb:99:2a:3d:9e:03:3b:10:
         be:ef:1b:f9:58:20:f7:e1:46:f2:ec:86:a2:44:c7:d1:30:b0:
         6f:dd:c9:3a:90:8c:d9:56:40:56:46:dc:6e:1a:d8:cc:bd:cb:
         1b:f0:b8:31:54:db:d3:32:4c:b1:56:75:69:3e:9c:60:15:a4:
         7a:41:47:09:be:c7:fa:16:af:23:9d:ab:44:8e:b5:9e:ac:77:
         2f:23:c2:f3:5d:7a:20:f7:7b:2a:26:9c:7b:ae:45:0e:07:8e:
         f8:99:99:28:16:1b:3c:09:c8:69:4b:51:2f:e3:5e:bc:d9:a4:
         91:eb:7e:fb:b6:e9:66:c0:6e:9d:b6:d1:84:ce:dc:37:6d:df:
         1a:e1:4e:1c:ac:b8:3a:f3:03:70:e0:50:ae:03:8c:93:5f:c7:
         95:7f:14:d7:61:2d:91:36:4f:75:59:a5:3b:ea:fe:84:a7:a3:
         a8:f4:9f:f8:92:5a:c3:0a:0a:0f:50:ea:31:fd:7c:ab:44:19:
         73:54:4f:47:d0:21:bc:18:71:2f:5d:fa:39:df:7d:d0:d3:1f:
         60:da:c0:3e:43:c6:ac:8e:c8:5e:f2:59:5f:c1:4c:38:9b:48:
         ec:fe:f0:ed
-----BEGIN CERTIFICATE-----
MIIEJjCCAw6gAwIBAgIEEAAA4jANBgkqhkiG9w0BAQsFADBEMQswCQYDVQQGEwJE
RTEPMA0GA1UECAwGSGVzc2VuMRQwEgYDVQQKDAtwcml2YWN5aWRlYTEOMAwGA1UE
AwwFQ0EwMDEwHhcNMTkwOTI1MDU1ODEzWhcNMjAwOTI0MDU1ODEzWjBUMQswCQYD
VQQGEwJERTEPMA0GA1UECAwGSGVzc2VuMRQwEgYDVQQKDAtwcml2YWN5aWRlYTEe
MBwGA1UEAwwVcmVxdWVzdGVyLmxvY2FsZG9tYWluMIIBIjANBgkqhkiG9w0BAQEF
AAOCAQ8AMIIBCgKCAQEAzb4UT/rOAT9CIhsdnK/dktJ/22y3PjlDQ2sTA/EF9Ad0
vHZpKAuvGY7X/OPNxljyyn8IbVP8BwJEJMa0NEyMBP4zDkDiILoCc1r39U9jbszG
tt9UHTc5fVE2Jl+93D+oi2uirrad1iHn30G4eigqaEjKqC3t4elGXlpybbSEOIeR
/ZQRCyiExsIvKvsB+TZ6CXXRM4g8c0FbyL+UiXCh8MC5LlBTHrEXZGn0LYHgqQ0O
Mum6VYqF8RtvSXm0f4jDDT5UiJs9HziMBPPuamMr9cbbtIOqxHhBOn1L4cg+ccob
YVnqxsTKMl7J6b8SKebGw2P+oFXaevFgmE0m7fpwLQIDAQABo4IBDjCCAQowCwYD
VR0PBAQDAgWgMAkGA1UdEwQCMAAwEQYJYIZIAYb4QgEBBAQDAgZAMDMGCWCGSAGG
+EIBDQQmFiRPcGVuU1NMIEdlbmVyYXRlZCBTZXJ2ZXIgQ2VydGlmaWNhdGUwHQYD
VR0OBBYEFFM/7V0JB7Nle6tFySRbCXeACpbtMHQGA1UdIwRtMGuAFPSnwMyRRq9k
85HyJ/jIsm+KhzJzoUikRjBEMQswCQYDVQQGEwJERTEPMA0GA1UECAwGSGVzc2Vu
MRQwEgYDVQQKDAtwcml2YWN5aWRlYTEOMAwGA1UEAwwFQ0EwMDGCCQD7yOusg80S
BzATBgNVHSUEDDAKBggrBgEFBQcDATANBgkqhkiG9w0BAQsFAAOCAQEAnB53POU4
vWppXrlGxI9JGaRlyeVVX+t+OByi4suZKj2eAzsQvu8b+Vgg9+FG8uyGokTH0TCw
b93JOpCM2VZAVkbcbhrYzL3LG/C4MVTb0zJMsVZ1aT6cYBWkekFHCb7H+havI52r
RI61nqx3LyPC8116IPd7Kiace65FDgeO+JmZKBYbPAnIaUtRL+NevNmkket++7bp
ZsBunbbRhM7cN23fGuFOHKy4OvMDcOBQrgOMk1/HlX8U12EtkTZPdVmlO+r+hKej
qPSf+JJawwoKD1DqMf18q0QZc1RPR9AhvBhxL136Od990NMfYNrAPkPGrI7IXvJZ
X8FMOJtI7P7w7Q==
-----END CERTIFICATE-----
