Certificate:
    Data:
        Version: 3 (0x2)
        Serial Number: 268435675 (0x100000db)
        Signature Algorithm: sha256WithRSAEncryption
        Issuer: C=DE, ST=Hessen, O=privacyidea, CN=CA001
        Validity
            Not Before: Sep 25 05:36:12 2019 GMT
            Not After : Sep 24 05:36:12 2020 GMT
        Subject: OU=realm1, CN=cornelius/emailAddress=user@localhost.localdomain
        Subject Public Key Info:
            Public Key Algorithm: rsaEncryption
                RSA Public-Key: (2048 bit)
                Modulus:
                    00:c3:2b:08:b1:c2:ed:e2:20:d7:4b:9c:48:f1:1e:
                    8a:56:7f:8f:88:40:45:53:2a:9d:10:3b:ce:af:b9:
                    70:c6:8d:5a:fa:77:c2:33:3d:bc:0d:e3:ba:14:0b:
                    21:24:40:bf:24:25:7e:c8:e6:9a:8d:9f:93:e4:ba:
                    eb:77:0e:f8:ff:ac:10:24:4c:71:8e:dd:50:95:4d:
                    8c:19:92:48:b5:b7:5f:8d:45:de:41:1d:83:0b:66:
                    a2:ad:fc:ff:33:6e:9a:b3:eb:c3:db:f1:24:3f:3d:
                    98:fc:24:11:0a:74:23:1a:e4:a6:8d:e8:88:9c:81:
                    9f:e1:80:8a:02:9a:e2:d0:c5:68:8a:87:1a:72:06:
                    c8:aa:bd:90:86:c8:29:78:39:97:62:f7:9d:6f:c1:
                    90:f1:1b:f2:69:58:40:25:63:7e:d0:12:ff:c3:6e:
                    3d:4d:35:41:db:ea:6a:57:98:8d:9b:14:7f:57:d9:
                    55:07:b1:71:8d:22:76:8e:b8:8c:d8:8d:1b:d9:78:
                    78:fc:a5:91:b6:43:80:ae:25:45:b6:21:92:f9:1a:
                    10:cc:bc:2d:92:ec:8f:50:cf:5e:06:c9:45:6d:e3:
                    8b:b6:4d:87:92:58:4a:55:55:e0:4d:49:b0:b0:a1:
                    85:2d:06:8e:56:c2:45:69:22:a3:9c:a7:0f:53:26:
                    b1:d1
                Exponent: 65537 (0x10001)
        X509v3 extensions:
            X509v3 Key Usage: 
                Digital Signature, Key Encipherment
            X509v3 Basic Constraints: 
                CA:FALSE
            Netscape Cert Type: 
                SSL Server
            Netscape Comment: 
                OpenSSL Generated Server Certificate
            X509v3 Subject Key Identifier: 
                65:C7:09:81:FA:31:82:10:F7:EE:86:C4:CE:37:3D:DA:A1:AF:3A:E2
            X509v3 Authority Key Identifier: 
                keyid:F4:A7:C0:CC:91:46:AF:64:F3:91:F2:27:F8:C8:B2:6F:8A:87:32:73
                DirName:/C=DE/ST=Hessen/O=privacyidea/CN=CA001
                serial:FB:C8:EB:AC:83:CD:12:07

            X509v3 Extended Key Usage: 
                TLS Web Server Authentication
    Signature Algorithm: sha256WithRSAEncryption
         6a:43:8f:32:06:e1:f7:b3:76:2c:2c:e9:52:fd:5b:65:2e:78:
         24:95:e7:fc:cf:b7:98:34:57:0a:01:42:5a:ba:db:5d:6e:a2:
         5d:3f:e3:6d:2a:04:7e:bd:c0:2f:53:59:53:0a:b1:f1:a2:aa:
         9b:dc:03:68:d8:09:39:18:7f:79:9c:62:1b:b3:f0:83:ef:20:
         b7:36:65:2e:99:fc:4a:b9:1b:29:43:d1:e2:a9:1e:d9:18:76:
         64:d3:31:72:4a:c3:e9:14:60:10:50:b2:c8:8b:70:19:c1:61:
         b4:e3:da:bf:10:89:36:ad:9f:e6:0e:ac:0c:2f:37:6f:3d:87:
         42:07:dd:45:dd:50:ff:cf:3c:3e:ed:e9:0b:ff:d6:4b:3f:3e:
         74:4a:e8:7f:d8:93:bc:99:ac:eb:d1:7a:60:90:46:8d:fb:89:
         d3:2b:60:c2:d0:e8:cb:e3:b5:85:ec:08:e7:42:fb:17:12:24:
         36:f7:a5:67:83:a8:7e:00:12:42:25:5e:cf:30:4e:65:5a:4f:
         c1:1b:d7:77:3e:e7:b9:56:c6:12:2c:9b:11:71:6c:78:b7:43:
         1b:70:cf:ae:cd:e0:26:bc:d6:b7:0d:b3:71:d1:82:27:9b:54:
         62:01:9b:4a:ef:38:59:30:e1:74:54:e1:48:ab:67:34:bf:3e:
         08:9c:0b:c4
-----BEGIN CERTIFICATE-----
MIIEIjCCAwqgAwIBAgIEEAAA2zANBgkqhkiG9w0BAQsFADBEMQswCQYDVQQGEwJE
RTEPMA0GA1UECAwGSGVzc2VuMRQwEgYDVQQKDAtwcml2YWN5aWRlYTEOMAwGA1UE
AwwFQ0EwMDEwHhcNMTkwOTI1MDUzNjEyWhcNMjAwOTI0MDUzNjEyWjBQMQ8wDQYD
VQQLDAZyZWFsbTExEjAQBgNVBAMMCWNvcm5lbGl1czEpMCcGCSqGSIb3DQEJARYa
dXNlckBsb2NhbGhvc3QubG9jYWxkb21haW4wggEiMA0GCSqGSIb3DQEBAQUAA4IB
DwAwggEKAoIBAQDDKwixwu3iINdLnEjxHopWf4+IQEVTKp0QO86vuXDGjVr6d8Iz
PbwN47oUCyEkQL8kJX7I5pqNn5Pkuut3Dvj/rBAkTHGO3VCVTYwZkki1t1+NRd5B
HYMLZqKt/P8zbpqz68Pb8SQ/PZj8JBEKdCMa5KaN6IicgZ/hgIoCmuLQxWiKhxpy
BsiqvZCGyCl4OZdi951vwZDxG/JpWEAlY37QEv/Dbj1NNUHb6mpXmI2bFH9X2VUH
sXGNInaOuIzYjRvZeHj8pZG2Q4CuJUW2IZL5GhDMvC2S7I9Qz14GyUVt44u2TYeS
WEpVVeBNSbCwoYUtBo5WwkVpIqOcpw9TJrHRAgMBAAGjggEOMIIBCjALBgNVHQ8E
BAMCBaAwCQYDVR0TBAIwADARBglghkgBhvhCAQEEBAMCBkAwMwYJYIZIAYb4QgEN
BCYWJE9wZW5TU0wgR2VuZXJhdGVkIFNlcnZlciBDZXJ0aWZpY2F0ZTAdBgNVHQ4E
FgQUZccJgfoxghD37obEzjc92qGvOuIwdAYDVR0jBG0wa4AU9KfAzJFGr2TzkfIn
+Miyb4qHMnOhSKRGMEQxCzAJBgNVBAYTAkRFMQ8wDQYDVQQIDAZIZXNzZW4xFDAS
BgNVBAoMC3ByaXZhY3lpZGVhMQ4wDAYDVQQDDAVDQTAwMYIJAPvI66yDzRIHMBMG
A1UdJQQMMAoGCCsGAQUFBwMBMA0GCSqGSIb3DQEBCwUAA4IBAQBqQ48yBuH3s3Ys
LOlS/VtlLngklef8z7eYNFcKAUJauttdbqJdP+NtKgR+vcAvU1lTCrHxoqqb3ANo
2Ak5GH95nGIbs/CD7yC3NmUumfxKuRspQ9HiqR7ZGHZk0zFySsPpFGAQULLIi3AZ
wWG049q/EIk2rZ/mDqwMLzdvPYdCB91F3VD/zzw+7ekL/9ZLPz50Suh/2JO8mazr
0XpgkEaN+4nTK2DC0OjL47WF7AjnQvsXEiQ296Vng6h+ABJCJV7PME5lWk/BG9d3
Pue5VsYSLJsRcWx4t0MbcM+uzeAmvNa3DbNx0YInm1RiAZtK7zhZMOF0VOFIq2c0
vz4InAvE
-----END CERTIFICATE-----
