Certificate:
    Data:
        Version: 3 (0x2)
        Serial Number: 268435672 (0x100000d8)
        Signature Algorithm: sha256WithRSAEncryption
        Issuer: C=DE, ST=Hessen, O=privacyidea, CN=CA001
        Validity
            Not Before: Sep 25 09:51:56 2019 GMT
            Not After : Sep 24 09:51:56 2020 GMT
        Subject: CN=selfservice,CN=user,O=realm1/emailAddress=meine
        Subject Public Key Info:
            Public Key Algorithm: rsaEncryption
                RSA Public-Key: (2048 bit)
                Modulus:
                    00:cf:3c:d4:33:0e:12:c4:e6:da:cd:b6:56:a1:1c:
                    26:bb:26:1c:8a:4a:73:a8:58:8a:b6:1e:b3:8b:99:
                    d2:1d:07:c2:92:89:79:c0:69:d8:c8:df:28:61:98:
                    1e:b3:fe:ae:2b:bd:78:a9:f7:6e:47:dc:a3:a0:16:
                    8c:85:02:c1:4e:92:fd:72:6e:f0:c8:03:29:9b:b8:
                    00:6e:c0:83:95:c8:34:20:36:9c:b3:e5:e4:e6:76:
                    73:a3:1a:ad:40:96:e0:53:54:00:ec:76:79:9a:c6:
                    0d:7e:b6:bd:29:ec:83:f3:cb:89:a4:cb:6c:00:ba:
                    0c:c5:78:0f:ff:69:b8:94:f4:04:70:43:3f:d8:9e:
                    d7:a7:fb:5d:ce:75:8e:da:e7:c4:07:b1:9d:de:6f:
                    88:4b:b6:4d:9a:cf:f9:bc:fa:9f:cd:32:6d:f6:3a:
                    0b:0d:23:42:78:ec:97:42:bf:0e:4d:60:56:e1:d3:
                    02:f2:19:cb:84:57:90:e5:70:a1:a2:83:35:86:e2:
                    da:86:9f:f9:8a:c4:79:b3:52:28:da:cb:bb:34:ca:
                    d3:da:91:4a:cf:8d:76:a2:b2:6b:9b:f9:96:fd:09:
                    2a:da:11:23:4d:f0:cb:d6:b2:b1:0e:12:6c:9a:19:
                    65:98:87:ca:e4:ee:24:ce:44:ac:90:8f:9d:1b:c5:
                    2a:9d
                Exponent: 65537 (0x10001)
        X509v3 extensions:
            X509v3 Key Usage: 
                Digital Signature, Key Encipherment
            X509v3 Basic Constraints: 
                CA:FALSE
            Netscape Cert Type: 
                SSL Server
            Netscape Comment: 
                OpenSSL Generated Server Certificate
            X509v3 Subject Key Identifier: 
                4D:07:90:AD:FF:1D:0D:E7:1A:DD:D6:2E:FA:BA:34:CB:AA:1F:24:C6
            X509v3 Authority Key Identifier: 
                keyid:F4:A7:C0:CC:91:46:AF:64:F3:91:F2:27:F8:C8:B2:6F:8A:87:32:73
                DirName:/C=DE/ST=Hessen/O=privacyidea/CN=CA001
                serial:FB:C8:EB:AC:83:CD:12:07

            X509v3 Extended Key Usage: 
                TLS Web Server Authentication
    Signature Algorithm: sha256WithRSAEncryption
         90:2f:a4:fd:d9:2a:da:af:48:d0:3a:23:26:bb:eb:22:74:2d:
         5a:8f:13:8d:c4:30:f0:7b:3e:fe:c3:16:06:cb:d7:b3:66:be:
         0f:68:02:b6:16:02:49:41:28:5f:e4:c4:40:fe:e3:c6:7c:78:
         91:b9:c2:eb:5a:d6:02:79:96:11:00:47:e0:3f:c3:6e:b6:0a:
         bb:b4:39:54:5a:76:da:37:3a:07:d4:38:21:fd:98:9a:71:36:
         30:9a:16:51:7d:07:d5:79:db:38:5d:87:e0:74:a7:b8:85:40:
         3e:b5:95:a0:58:8b:f6:d7:4e:c0:76:6c:f3:f7:bc:3f:d7:34:
         42:e7:68:95:d9:4f:2b:42:7a:e2:a8:d2:20:3d:a6:6a:71:fa:
         0e:15:47:1e:86:b6:4f:9d:b8:fb:b8:6a:ff:3b:4b:90:66:db:
         67:39:05:ab:c8:75:4e:32:90:69:4e:de:b5:08:f9:f0:69:c0:
         79:c8:4c:80:02:8d:17:6c:bc:58:2b:0e:88:a9:47:47:a9:82:
         f2:29:01:ca:e7:1c:de:af:80:47:08:5d:0d:18:ea:db:84:1b:
         1a:9e:80:47:6c:29:d0:1f:51:88:9a:6a:93:3f:2f:ba:99:e1:
         0b:33:2d:53:17:e1:e4:6c:7b:83:d2:bc:f5:67:e8:8d:b4:e5:
         76:8f:d6:8f
-----BEGIN CERTIFICATE-----
MIIEDzCCAvegAwIBAgIEEAAA2DANBgkqhkiG9w0BAQsFADBEMQswCQYDVQQGEwJE
RTEPMA0GA1UECAwGSGVzc2VuMRQwEgYDVQQKDAtwcml2YWN5aWRlYTEOMAwGA1UE
AwwFQ0EwMDEwHhcNMTkwOTI1MDk1MTU2WhcNMjAwOTI0MDk1MTU2WjA9MSUwIwYD
VQQDDBxzZWxmc2VydmljZSxDTj11c2VyLE89cmVhbG0xMRQwEgYJKoZIhvcNAQkB
FgVtZWluZTCCASIwDQYJKoZIhvcNAQEBBQADggEPADCCAQoCggEBAM881DMOEsTm
2s22VqEcJrsmHIpKc6hYirYes4uZ0h0HwpKJecBp2MjfKGGYHrP+riu9eKn3bkfc
o6AWjIUCwU6S/XJu8MgDKZu4AG7Ag5XINCA2nLPl5OZ2c6MarUCW4FNUAOx2eZrG
DX62vSnsg/PLiaTLbAC6DMV4D/9puJT0BHBDP9ie16f7Xc51jtrnxAexnd5viEu2
TZrP+bz6n80ybfY6Cw0jQnjsl0K/Dk1gVuHTAvIZy4RXkOVwoaKDNYbi2oaf+YrE
ebNSKNrLuzTK09qRSs+NdqKya5v5lv0JKtoRI03wy9aysQ4SbJoZZZiHyuTuJM5E
rJCPnRvFKp0CAwEAAaOCAQ4wggEKMAsGA1UdDwQEAwIFoDAJBgNVHRMEAjAAMBEG
CWCGSAGG+EIBAQQEAwIGQDAzBglghkgBhvhCAQ0EJhYkT3BlblNTTCBHZW5lcmF0
ZWQgU2VydmVyIENlcnRpZmljYXRlMB0GA1UdDgQWBBRNB5Ct/x0N5xrd1i76ujTL
qh8kxjB0BgNVHSMEbTBrgBT0p8DMkUavZPOR8if4yLJviocyc6FIpEYwRDELMAkG
A1UEBhMCREUxDzANBgNVBAgMBkhlc3NlbjEUMBIGA1UECgwLcHJpdmFjeWlkZWEx
DjAMBgNVBAMMBUNBMDAxggkA+8jrrIPNEgcwEwYDVR0lBAwwCgYIKwYBBQUHAwEw
DQYJKoZIhvcNAQELBQADggEBAJAvpP3ZKtqvSNA6Iya76yJ0LVqPE43EMPB7Pv7D
FgbL17Nmvg9oArYWAklBKF/kxED+48Z8eJG5wuta1gJ5lhEAR+A/w262Cru0OVRa
dto3OgfUOCH9mJpxNjCaFlF9B9V52zhdh+B0p7iFQD61laBYi/bXTsB2bPP3vD/X
NELnaJXZTytCeuKo0iA9pmpx+g4VRx6Gtk+duPu4av87S5Bm22c5BavIdU4ykGlO
3rUI+fBpwHnITIACjRdsvFgrDoipR0epgvIpAcrnHN6vgEcIXQ0Y6tuEGxqegEds
KdAfUYiaapM/L7qZ4QszLVMX4eRse4PSvPVn6I205XaP1o8=
-----END CERTIFICATE-----
