Certificate:
    Data:
        Version: 3 (0x2)
        Serial Number: 268435679 (0x100000df)
        Signature Algorithm: sha256WithRSAEncryption
        Issuer: C=DE, ST=Hessen, O=privacyidea, CN=CA001
        Validity
            Not Before: Sep 25 05:43:06 2019 GMT
            Not After : Sep 24 05:43:06 2020 GMT
        Subject: OU=realm1, CN=cornelius/emailAddress=user@localhost.localdomain
        Subject Public Key Info:
            Public Key Algorithm: rsaEncryption
                RSA Public-Key: (2048 bit)
                Modulus:
                    00:bf:b4:d4:b6:2c:66:89:d0:46:31:3b:5c:46:ce:
                    7d:1f:16:e4:51:24:7a:a9:df:1d:3c:4a:50:5f:f0:
                    c2:c9:73:2e:d0:ef:d9:f4:40:6a:ce:a0:41:16:e3:
                    4b:16:39:a6:ec:1d:23:6e:1f:c6:04:f6:2d:22:90:
                    20:e8:a7:4e:5b:40:b1:78:13:ea:b1:8f:65:e3:7c:
                    f6:cf:c2:27:d7:6e:a1:6a:43:a7:e0:a8:62:fd:7a:
                    69:da:75:93:9b:7a:17:5d:f5:5c:4e:cb:5c:d1:90:
                    78:ea:29:d3:16:4d:b1:22:f0:a8:57:25:73:56:52:
                    76:60:10:fa:ae:a6:79:5a:07:40:f4:fa:05:70:98:
                    9d:63:b2:a0:d4:14:a5:20:b9:d1:4d:8d:ac:d5:85:
                    d8:56:da:65:42:61:70:eb:fd:23:49:3f:64:d3:da:
                    f5:f3:43:8c:64:17:16:5f:2c:ab:ac:84:64:83:89:
                    c8:98:0e:56:53:ed:0e:63:6c:ea:f9:5f:ef:90:ef:
                    fe:be:f3:5d:d7:88:fd:6f:ca:7e:3a:cc:b8:42:00:
                    f0:be:2c:fe:9b:3a:cb:41:82:53:ed:98:59:ff:9f:
                    e2:3d:11:20:c4:b3:63:b4:73:1a:17:2d:e8:fb:f9:
                    30:17:4b:2a:0a:c3:02:d2:94:a2:55:01:26:63:e1:
                    98:77
                Exponent: 65537 (0x10001)
        X509v3 extensions:
            X509v3 Key Usage: 
                Digital Signature, Key Encipherment
            X509v3 Basic Constraints: 
                CA:FALSE
            Netscape Cert Type: 
                SSL Server
            Netscape Comment: 
                OpenSSL Generated Server Certificate
            X509v3 Subject Key Identifier: 
                E0:1B:51:92:AA:1C:67:00:B2:3C:11:2B:37:06:99:3F:28:70:DD:6F
            X509v3 Authority Key Identifier: 
                keyid:F4:A7:C0:CC:91:46:AF:64:F3:91:F2:27:F8:C8:B2:6F:8A:87:32:73
                DirName:/C=DE/ST=Hessen/O=privacyidea/CN=CA001
                serial:FB:C8:EB:AC:83:CD:12:07

            X509v3 Extended Key Usage: 
                TLS Web Server Authentication
    Signature Algorithm: sha256WithRSAEncryption
         27:a7:a7:c6:f5:0e:32:cc:bb:43:9d:0c:9d:8f:3d:5e:cc:61:
         2b:91:6c:6d:a6:27:73:11:37:71:f2:c2:06:82:07:03:81:91:
         32:1f:78:4f:e9:e9:e1:3a:4a:72:43:8f:da:ee:68:31:8d:a6:
         e1:f9:c8:18:2d:db:31:3a:2a:d9:8e:fd:4b:40:4d:52:a2:0e:
         e2:5c:df:bc:31:3b:d3:cb:78:5d:3e:51:d1:dd:65:97:8c:a4:
         61:43:02:b6:4a:40:6b:ce:9f:74:d2:30:41:b9:a1:1b:80:1c:
         f0:c8:b1:0c:90:98:82:cf:d9:2b:0d:31:ec:48:1d:83:4f:27:
         95:61:c3:35:e9:9e:d7:11:b7:b8:27:9b:27:78:9f:24:10:f6:
         c7:c7:b5:48:f5:fb:80:c7:3c:e5:fc:e4:53:ea:a1:9a:f4:48:
         21:7c:6b:ee:3c:9d:ff:63:a7:c2:2f:cc:36:ea:27:64:55:ad:
         ad:36:11:53:2c:3e:55:57:28:40:99:e8:42:b2:8a:59:32:51:
         1c:6c:06:51:b3:a6:0c:0d:79:10:07:5a:c8:a2:28:80:20:36:
         a4:9f:c6:95:62:aa:6b:4f:5a:8e:41:2b:d3:45:75:3c:dd:46:
         33:e3:d0:ab:31:77:95:21:9e:8d:33:7e:f1:2b:45:ef:ce:b8:
         ce:96:65:ff
-----BEGIN CERTIFICATE-----
MIIEIjCCAwqgAwIBAgIEEAAA3zANBgkqhkiG9w0BAQsFADBEMQswCQYDVQQGEwJE
RTEPMA0GA1UECAwGSGVzc2VuMRQwEgYDVQQKDAtwcml2YWN5aWRlYTEOMAwGA1UE
AwwFQ0EwMDEwHhcNMTkwOTI1MDU0MzA2WhcNMjAwOTI0MDU0MzA2WjBQMQ8wDQYD
VQQLDAZyZWFsbTExEjAQBgNVBAMMCWNvcm5lbGl1czEpMCcGCSqGSIb3DQEJARYa
dXNlckBsb2NhbGhvc3QubG9jYWxkb21haW4wggEiMA0GCSqGSIb3DQEBAQUAA4IB
DwAwggEKAoIBAQC/tNS2LGaJ0EYxO1xGzn0fFuRRJHqp3x08SlBf8MLJcy7Q79n0
QGrOoEEW40sWOabsHSNuH8YE9i0ikCDop05bQLF4E+qxj2XjfPbPwifXbqFqQ6fg
qGL9emnadZObehdd9VxOy1zRkHjqKdMWTbEi8KhXJXNWUnZgEPqupnlaB0D0+gVw
mJ1jsqDUFKUgudFNjazVhdhW2mVCYXDr/SNJP2TT2vXzQ4xkFxZfLKushGSDiciY
DlZT7Q5jbOr5X++Q7/6+813XiP1vyn46zLhCAPC+LP6bOstBglPtmFn/n+I9ESDE
s2O0cxoXLej7+TAXSyoKwwLSlKJVASZj4Zh3AgMBAAGjggEOMIIBCjALBgNVHQ8E
BAMCBaAwCQYDVR0TBAIwADARBglghkgBhvhCAQEEBAMCBkAwMwYJYIZIAYb4QgEN
BCYWJE9wZW5TU0wgR2VuZXJhdGVkIFNlcnZlciBDZXJ0aWZpY2F0ZTAdBgNVHQ4E
FgQU4BtRkqocZwCyPBErNwaZPyhw3W8wdAYDVR0jBG0wa4AU9KfAzJFGr2TzkfIn
+Miyb4qHMnOhSKRGMEQxCzAJBgNVBAYTAkRFMQ8wDQYDVQQIDAZIZXNzZW4xFDAS
BgNVBAoMC3ByaXZhY3lpZGVhMQ4wDAYDVQQDDAVDQTAwMYIJAPvI66yDzRIHMBMG
A1UdJQQMMAoGCCsGAQUFBwMBMA0GCSqGSIb3DQEBCwUAA4IBAQAnp6fG9Q4yzLtD
nQydjz1ezGErkWxtpidzETdx8sIGggcDgZEyH3hP6enhOkpyQ4/a7mgxjabh+cgY
LdsxOirZjv1LQE1Sog7iXN+8MTvTy3hdPlHR3WWXjKRhQwK2SkBrzp900jBBuaEb
gBzwyLEMkJiCz9krDTHsSB2DTyeVYcM16Z7XEbe4J5sneJ8kEPbHx7VI9fuAxzzl
/ORT6qGa9EghfGvuPJ3/Y6fCL8w26idkVa2tNhFTLD5VVyhAmehCsopZMlEcbAZR
s6YMDXkQB1rIoiiAIDakn8aVYqprT1qOQSvTRXU83UYz49CrMXeVIZ6NM37xK0Xv
zrjOlmX/
-----END CERTIFICATE-----
