Certificate:
    Data:
        Version: 3 (0x2)
        Serial Number: 268435678 (0x100000de)
        Signature Algorithm: sha256WithRSAEncryption
        Issuer: C=DE, ST=Hessen, O=privacyidea, CN=CA001
        Validity
            Not Before: Sep 25 05:43:06 2019 GMT
            Not After : Sep 24 05:43:06 2020 GMT
        Subject: C=DE, ST=Hessen, O=privacyidea, CN=requester.localdomain
        Subject Public Key Info:
            Public Key Algorithm: rsaEncryption
                RSA Public-Key: (2048 bit)
                Modulus:
                    00:cd:be:14:4f:fa:ce:01:3f:42:22:1b:1d:9c:af:
                    dd:92:d2:7f:db:6c:b7:3e:39:43:43:6b:13:03:f1:
                    05:f4:07:74:bc:76:69:28:0b:af:19:8e:d7:fc:e3:
                    cd:c6:58:f2:ca:7f:08:6d:53:fc:07:02:44:24:c6:
                    b4:34:4c:8c:04:fe:33:0e:40:e2:20:ba:02:73:5a:
                    f7:f5:4f:63:6e:cc:c6:b6:df:54:1d:37:39:7d:51:
                    36:26:5f:bd:dc:3f:a8:8b:6b:a2:ae:b6:9d:d6:21:
                    e7:df:41:b8:7a:28:2a:68:48:ca:a8:2d:ed:e1:e9:
                    46:5e:5a:72:6d:b4:84:38:87:91:fd:94:11:0b:28:
                    84:c6:c2:2f:2a:fb:01:f9:36:7a:09:75:d1:33:88:
                    3c:73:41:5b:c8:bf:94:89:70:a1:f0:c0:b9:2e:50:
                    53:1e:b1:17:64:69:f4:2d:81:e0:a9:0d:0e:32:e9:
                    ba:55:8a:85:f1:1b:6f:49:79:b4:7f:88:c3:0d:3e:
                    54:88:9b:3d:1f:38:8c:04:f3:ee:6a:63:2b:f5:c6:
                    db:b4:83:aa:c4:78:41:3a:7d:4b:e1:c8:3e:71:ca:
                    1b:61:59:ea:c6:c4:ca:32:5e:c9:e9:bf:12:29:e6:
                    c6:c3:63:fe:a0:55:da:7a:f1:60:98:4d:26:ed:fa:
                    70:2d
                Exponent: 65537 (0x10001)
        X509v3 extensions:
            X509v3 Key Usage: 
                Digital Signature, Key Encipherment
            X509v3 Basic Constraints: 
                CA:FALSE
            Netscape Cert Type: 
                SSL Server
            Netscape Comment: 
                OpenSSL Generated Server Certificate
            X509v3 Subject Key Identifier: 
                53:3F:ED:5D:09:07:B3:65:7B:AB:45:C9:24:5B:09:77:80:0A:96:ED
            X509v3 Authority Key Identifier: 
                keyid:F4:A7:C0:CC:91:46:AF:64:F3:91:F2:27:F8:C8:B2:6F:8A:87:32:73
                DirName:/C=DE/ST=Hessen/O=privacyidea/CN=CA001
                serial:FB:C8:EB:AC:83:CD:12:07

            X509v3 Extended Key Usage: 
                TLS Web Server Authentication
    Signature Algorithm: sha256WithRSAEncryption
         50:4b:83:10:98:9a:ff:56:e9:4d:e4:d1:93:86:45:b3:55:52:
         77:b7:e5:d9:23:c8:21:e8:dd:82:d1:64:20:53:b8:a3:83:9f:
         ad:81:f7:4e:d0:4e:8d:e6:9a:eb:48:fe:fa:ad:af:a8:a7:ab:
         92:f0:62:53:82:e5:a4:37:9a:d7:79:26:72:a3:c7:03:23:ad:
         2b:53:96:0b:42:88:71:b5:02:fb:65:7c:3f:38:fd:86:e5:5e:
         a1:e9:01:a2:14:b1:df:7e:4c:4c:5f:4d:15:49:f7:5b:fd:99:
         7b:0d:59:c0:71:34:1b:f5:14:92:4f:4f:0e:59:60:a8:88:5c:
         16:2d:84:33:cf:d9:54:95:7f:78:c3:48:f3:e7:d8:db:b8:95:
         1c:54:ea:41:2e:fe:19:cf:57:19:64:54:e3:78:1f:3a:a3:4f:
         6e:6e:d8:7d:3f:c8:ab:4c:63:a9:0b:5e:f8:88:4a:86:60:f0:
         45:34:c9:7d:53:ca:c1:0c:57:72:94:11:3f:bc:20:5a:af:4d:
         92:3d:ad:9d:49:21:e1:c0:d5:81:a6:10:ab:93:7a:8f:58:a3:
         81:b2:64:1f:18:02:52:62:4b:74:6f:92:d8:c8:9b:a3:1d:b6:
         6e:d0:74:5a:9d:1e:bb:70:a5:fc:22:f4:d5:26:10:9b:69:c5:
         f0:d0:00:a3
-----BEGIN CERTIFICATE-----
MIIEJjCCAw6gAwIBAgIEEAAA3jANBgkqhkiG9w0BAQsFADBEMQswCQYDVQQGEwJE
RTEPMA0GA1UECAwGSGVzc2VuMRQwEgYDVQQKDAtwcml2YWN5aWRlYTEOMAwGA1UE
AwwFQ0EwMDEwHhcNMTkwOTI1MDU0MzA2WhcNMjAwOTI0MDU0MzA2WjBUMQswCQYD
VQQGEwJERTEPMA0GA1UECAwGSGVzc2VuMRQwEgYDVQQKDAtwcml2YWN5aWRlYTEe
MBwGA1UEAwwVcmVxdWVzdGVyLmxvY2FsZG9tYWluMIIBIjANBgkqhkiG9w0BAQEF
AAOCAQ8AMIIBCgKCAQEAzb4UT/rOAT9CIhsdnK/dktJ/22y3PjlDQ2sTA/EF9Ad0
vHZpKAuvGY7X/OPNxljyyn8IbVP8BwJEJMa0NEyMBP4zDkDiILoCc1r39U9jbszG
tt9UHTc5fVE2Jl+93D+oi2uirrad1iHn30G4eigqaEjKqC3t4elGXlpybbSEOIeR
/ZQRCyiExsIvKvsB+TZ6CXXRM4g8c0FbyL+UiXCh8MC5LlBTHrEXZGn0LYHgqQ0O
Mum6VYqF8RtvSXm0f4jDDT5UiJs9HziMBPPuamMr9cbbtIOqxHhBOn1L4cg+ccob
YVnqxsTKMl7J6b8SKebGw2P+oFXaevFgmE0m7fpwLQIDAQABo4IBDjCCAQowCwYD
VR0PBAQDAgWgMAkGA1UdEwQCMAAwEQYJYIZIAYb4QgEBBAQDAgZAMDMGCWCGSAGG
+EIBDQQmFiRPcGVuU1NMIEdlbmVyYXRlZCBTZXJ2ZXIgQ2VydGlmaWNhdGUwHQYD
VR0OBBYEFFM/7V0JB7Nle6tFySRbCXeACpbtMHQGA1UdIwRtMGuAFPSnwMyRRq9k
85HyJ/jIsm+KhzJzoUikRjBEMQswCQYDVQQGEwJERTEPMA0GA1UECAwGSGVzc2Vu
MRQwEgYDVQQKDAtwcml2YWN5aWRlYTEOMAwGA1UEAwwFQ0EwMDGCCQD7yOusg80S
BzATBgNVHSUEDDAKBggrBgEFBQcDATANBgkqhkiG9w0BAQsFAAOCAQEAUEuDEJia
/1bpTeTRk4ZFs1VSd7fl2SPIIejdgtFkIFO4o4OfrYH3TtBOjeaa60j++q2vqKer
kvBiU4LlpDea13kmcqPHAyOtK1OWC0KIcbUC+2V8Pzj9huVeoekBohSx335MTF9N
FUn3W/2Zew1ZwHE0G/UUkk9PDllgqIhcFi2EM8/ZVJV/eMNI8+fY27iVHFTqQS7+
Gc9XGWRU43gfOqNPbm7YfT/Iq0xjqQte+IhKhmDwRTTJfVPKwQxXcpQRP7wgWq9N
kj2tnUkh4cDVgaYQq5N6j1ijgbJkHxgCUmJLdG+S2Mibox22btB0Wp0eu3Cl/CL0
1SYQm2nF8NAAow==
-----END CERTIFICATE-----
