Certificate:
    Data:
        Version: 3 (0x2)
        Serial Number: 268435696 (0x100000f0)
        Signature Algorithm: sha256WithRSAEncryption
        Issuer: C=DE, ST=Hessen, O=privacyidea, CN=CA001
        Validity
            Not Before: Aug 14 19:43:09 2019 GMT
            Not After : Aug 13 19:43:09 2020 GMT
        Subject: OU=realm1, CN=cornelius/emailAddress=user@localhost.localdomain
        Subject Public Key Info:
            Public Key Algorithm: rsaEncryption
                RSA Public-Key: (2048 bit)
                Modulus:
                    00:e6:5b:77:25:12:97:f1:60:ae:4f:5b:97:e0:09:
                    41:6f:0c:79:9b:1c:56:66:6a:42:47:2b:cc:41:ef:
                    e4:5c:37:ba:19:3e:4e:3d:71:64:37:65:04:b8:8d:
                    d3:0c:85:6d:4e:2e:cf:f7:30:8f:5c:50:34:2a:76:
                    a0:dd:41:a6:b9:71:5d:a0:c6:de:61:66:a7:4c:a2:
                    8a:5c:08:ef:cb:b8:be:71:09:a2:0a:8e:c4:fe:8f:
                    2b:23:d9:37:ee:3d:3f:f0:fa:79:d1:0e:ff:0e:93:
                    68:98:ff:fa:f8:2f:d0:77:74:8a:70:c1:d6:e1:b4:
                    4f:2b:5d:c6:28:b6:bf:ac:1b:89:d5:e3:46:ae:d9:
                    8e:f3:3f:8e:8c:37:b4:10:9a:4d:ff:e0:a5:17:ab:
                    92:55:6d:5d:b2:d9:df:8d:61:14:7c:51:63:f0:48:
                    dc:36:27:90:03:59:93:02:18:8c:51:bf:d0:c9:5c:
                    40:43:c0:ea:98:a3:77:d4:d4:16:0c:99:16:38:d9:
                    a3:35:26:61:92:9e:f8:fc:36:fd:95:34:12:10:04:
                    ab:17:24:3f:1f:fa:83:f8:44:57:72:53:76:c8:64:
                    86:42:38:b4:d8:61:36:c0:41:5c:ae:7f:9f:c6:b0:
                    54:49:74:67:9d:a7:c4:18:02:b9:f6:7e:86:e6:a6:
                    b7:3d
                Exponent: 65537 (0x10001)
        X509v3 extensions:
            X509v3 Key Usage: 
                Digital Signature, Key Encipherment
            X509v3 Basic Constraints: 
                CA:FALSE
            Netscape Cert Type: 
                SSL Server
            Netscape Comment: 
                OpenSSL Generated Server Certificate
            X509v3 Subject Key Identifier: 
                4C:F0:0C:5C:60:89:22:6F:DC:AF:D2:B1:8F:76:66:FA:C4:F5:B5:5E
            X509v3 Authority Key Identifier: 
                keyid:F4:A7:C0:CC:91:46:AF:64:F3:91:F2:27:F8:C8:B2:6F:8A:87:32:73
                DirName:/C=DE/ST=Hessen/O=privacyidea/CN=CA001
                serial:FB:C8:EB:AC:83:CD:12:07

            X509v3 Extended Key Usage: 
                TLS Web Server Authentication
    Signature Algorithm: sha256WithRSAEncryption
         92:f8:1d:a1:3f:e6:63:c7:a8:97:4e:72:ad:0d:71:8a:bb:0c:
         15:e7:dc:f3:14:3d:fb:f1:1d:4d:19:ee:55:f1:31:a9:4b:8f:
         d1:78:b2:00:b9:63:3c:39:4e:eb:d0:6e:24:d0:3d:7f:d0:d3:
         11:b9:5d:cc:51:22:69:c7:21:13:d3:61:0a:93:df:fa:13:a3:
         58:d3:a5:48:64:57:dd:3e:24:07:bf:a0:41:fd:3d:e0:9b:26:
         2d:b5:36:b2:2e:c0:4a:78:cb:47:4b:4b:99:71:41:32:f2:77:
         5c:bb:40:b7:19:90:28:63:1b:9e:1c:8a:bf:4d:2f:20:06:73:
         40:f6:d7:23:0b:62:30:ab:b9:ca:5e:af:2e:0b:df:06:b6:4c:
         d6:7a:73:58:cc:d0:7c:ca:92:2a:43:7f:61:71:ae:20:37:ad:
         9d:47:4b:d2:25:c4:07:a6:ac:27:00:2b:7f:20:e8:98:40:3a:
         96:ca:ce:37:13:60:b4:5f:ae:4c:6d:01:54:60:d1:bb:85:27:
         d2:a1:fb:2d:e9:96:dc:3a:3d:1a:78:f8:81:d7:1b:05:96:35:
         09:06:9a:fa:84:d0:a8:da:95:83:e8:6a:3c:a6:b9:27:43:8f:
         b9:34:5b:75:0f:a9:07:ed:87:4f:cf:86:7c:d9:5e:d3:86:ad:
         5a:9e:b8:49
-----BEGIN CERTIFICATE-----
MIIEIjCCAwqgAwIBAgIEEAAA8DANBgkqhkiG9w0BAQsFADBEMQswCQYDVQQGEwJE
RTEPMA0GA1UECAwGSGVzc2VuMRQwEgYDVQQKDAtwcml2YWN5aWRlYTEOMAwGA1UE
AwwFQ0EwMDEwHhcNMTkwODE0MTk0MzA5WhcNMjAwODEzMTk0MzA5WjBQMQ8wDQYD
VQQLDAZyZWFsbTExEjAQBgNVBAMMCWNvcm5lbGl1czEpMCcGCSqGSIb3DQEJARYa
dXNlckBsb2NhbGhvc3QubG9jYWxkb21haW4wggEiMA0GCSqGSIb3DQEBAQUAA4IB
DwAwggEKAoIBAQDmW3clEpfxYK5PW5fgCUFvDHmbHFZmakJHK8xB7+RcN7oZPk49
cWQ3ZQS4jdMMhW1OLs/3MI9cUDQqdqDdQaa5cV2gxt5hZqdMoopcCO/LuL5xCaIK
jsT+jysj2TfuPT/w+nnRDv8Ok2iY//r4L9B3dIpwwdbhtE8rXcYotr+sG4nV40au
2Y7zP46MN7QQmk3/4KUXq5JVbV2y2d+NYRR8UWPwSNw2J5ADWZMCGIxRv9DJXEBD
wOqYo3fU1BYMmRY42aM1JmGSnvj8Nv2VNBIQBKsXJD8f+oP4RFdyU3bIZIZCOLTY
YTbAQVyuf5/GsFRJdGedp8QYArn2fobmprc9AgMBAAGjggEOMIIBCjALBgNVHQ8E
BAMCBaAwCQYDVR0TBAIwADARBglghkgBhvhCAQEEBAMCBkAwMwYJYIZIAYb4QgEN
BCYWJE9wZW5TU0wgR2VuZXJhdGVkIFNlcnZlciBDZXJ0aWZpY2F0ZTAdBgNVHQ4E
FgQUTPAMXGCJIm/cr9Kxj3Zm+sT1tV4wdAYDVR0jBG0wa4AU9KfAzJFGr2TzkfIn
+Miyb4qHMnOhSKRGMEQxCzAJBgNVBAYTAkRFMQ8wDQYDVQQIDAZIZXNzZW4xFDAS
BgNVBAoMC3ByaXZhY3lpZGVhMQ4wDAYDVQQDDAVDQTAwMYIJAPvI66yDzRIHMBMG
A1UdJQQMMAoGCCsGAQUFBwMBMA0GCSqGSIb3DQEBCwUAA4IBAQCS+B2hP+Zjx6iX
TnKtDXGKuwwV59zzFD378R1NGe5V8TGpS4/ReLIAuWM8OU7r0G4k0D1/0NMRuV3M
USJpxyET02EKk9/6E6NY06VIZFfdPiQHv6BB/T3gmyYttTayLsBKeMtHS0uZcUEy
8ndcu0C3GZAoYxueHIq/TS8gBnNA9tcjC2Iwq7nKXq8uC98GtkzWenNYzNB8ypIq
Q39hca4gN62dR0vSJcQHpqwnACt/IOiYQDqWys43E2C0X65MbQFUYNG7hSfSofst
6ZbcOj0aePiB1xsFljUJBpr6hNCo2pWD6Go8prknQ4+5NFt1D6kH7YdPz4Z82V7T
hq1anrhJ
-----END CERTIFICATE-----
