Certificate:
    Data:
        Version: 3 (0x2)
        Serial Number: 268435677 (0x100000dd)
        Signature Algorithm: sha256WithRSAEncryption
        Issuer: C=DE, ST=Hessen, O=privacyidea, CN=CA001
        Validity
            Not Before: Sep 25 05:37:33 2019 GMT
            Not After : Sep 24 05:37:33 2020 GMT
        Subject: OU=realm1, CN=cornelius/emailAddress=user@localhost.localdomain
        Subject Public Key Info:
            Public Key Algorithm: rsaEncryption
                RSA Public-Key: (2048 bit)
                Modulus:
                    00:f7:37:63:e0:4f:fe:c5:d3:b4:7a:be:88:b8:6c:
                    17:30:a0:66:43:76:fe:b9:57:a8:af:b6:b2:3f:7c:
                    02:1c:a0:52:4b:bb:b0:8f:57:ed:02:d6:16:10:51:
                    2d:f7:04:c0:07:8d:ec:46:90:a5:82:14:81:d7:14:
                    18:7c:87:1a:7b:80:f4:82:8d:9f:c3:e1:d4:48:cc:
                    3d:e1:f9:42:0f:06:3c:26:d3:72:11:fd:9f:65:9b:
                    cb:75:59:a2:cf:4e:29:99:b9:0a:0a:de:01:7d:37:
                    27:16:75:0d:9d:35:a8:57:fe:46:1e:4a:39:46:e3:
                    d4:76:8a:ac:03:2c:02:38:40:3e:3b:c2:05:9a:73:
                    ed:dc:42:ab:56:43:77:12:89:78:63:eb:3a:6f:b8:
                    61:b0:65:73:3c:45:a1:ef:e0:f2:9b:b4:19:1c:96:
                    ca:fd:70:2d:70:09:ff:79:8c:8d:f4:21:4c:8b:92:
                    75:68:d7:62:b4:53:6a:8e:05:50:1b:0a:19:07:34:
                    d9:e8:c8:46:cc:e0:80:0a:d2:68:ca:c6:3b:0a:81:
                    88:b8:87:73:ef:67:9d:32:cf:50:27:b6:cc:2a:42:
                    3d:70:e2:c2:6d:6f:ab:92:c8:d8:06:98:82:2c:b5:
                    d9:9a:18:d4:e0:57:32:b4:31:26:ae:8f:f3:d0:2a:
                    6f:8b
                Exponent: 65537 (0x10001)
        X509v3 extensions:
            X509v3 Key Usage: 
                Digital Signature, Key Encipherment
            X509v3 Basic Constraints: 
                CA:FALSE
            Netscape Cert Type: 
                SSL Server
            Netscape Comment: 
                OpenSSL Generated Server Certificate
            X509v3 Subject Key Identifier: 
                9C:CF:E7:4E:40:91:FE:E7:68:A3:9D:57:C5:8F:98:50:8C:B9:D3:69
            X509v3 Authority Key Identifier: 
                keyid:F4:A7:C0:CC:91:46:AF:64:F3:91:F2:27:F8:C8:B2:6F:8A:87:32:73
                DirName:/C=DE/ST=Hessen/O=privacyidea/CN=CA001
                serial:FB:C8:EB:AC:83:CD:12:07

            X509v3 Extended Key Usage: 
                TLS Web Server Authentication
    Signature Algorithm: sha256WithRSAEncryption
         b5:91:f6:1b:ae:91:74:f7:f3:32:70:1e:fb:cc:94:fd:b3:57:
         a8:cb:05:24:40:c8:2e:fe:e0:03:5e:c1:ac:a8:74:3c:bf:08:
         87:cc:0b:0f:f6:89:f1:46:5c:7c:e2:fa:8f:04:ac:6a:30:66:
         69:24:fb:0a:14:e0:e6:16:f1:49:1b:83:4a:e3:da:f4:65:4d:
         dc:2c:39:6a:26:27:9a:59:dd:43:9a:a5:3a:2f:2a:60:5a:3f:
         d9:ee:52:ee:7d:ff:7c:ea:6a:4c:16:89:84:2b:3c:ff:ed:68:
         15:c3:c1:06:1c:53:8e:41:b0:0f:39:01:f6:1a:bd:bd:5a:2c:
         e7:c4:1a:42:12:fc:a3:cb:c1:c7:78:7a:f9:1c:da:c7:f7:00:
         f1:a5:b8:50:d4:b8:cb:b8:cf:85:07:35:a8:57:05:f5:5b:a7:
         23:47:a3:7f:0d:89:ae:bb:11:16:30:9b:2f:d5:a5:d1:41:82:
         a9:cc:9b:0d:da:e1:70:c0:60:17:5f:c5:4e:3d:9d:51:6c:73:
         47:5a:81:6d:d3:96:44:18:2e:e4:0b:8b:2f:63:71:e8:c7:4d:
         fc:5d:d9:67:19:c9:1f:90:59:93:25:9d:6a:02:d8:24:31:5d:
         f6:23:f2:ac:68:68:69:cb:db:d6:5d:5f:42:ce:cc:11:f4:75:
         df:8c:73:6b
-----BEGIN CERTIFICATE-----
MIIEIjCCAwqgAwIBAgIEEAAA3TANBgkqhkiG9w0BAQsFADBEMQswCQYDVQQGEwJE
RTEPMA0GA1UECAwGSGVzc2VuMRQwEgYDVQQKDAtwcml2YWN5aWRlYTEOMAwGA1UE
AwwFQ0EwMDEwHhcNMTkwOTI1MDUzNzMzWhcNMjAwOTI0MDUzNzMzWjBQMQ8wDQYD
VQQLDAZyZWFsbTExEjAQBgNVBAMMCWNvcm5lbGl1czEpMCcGCSqGSIb3DQEJARYa
dXNlckBsb2NhbGhvc3QubG9jYWxkb21haW4wggEiMA0GCSqGSIb3DQEBAQUAA4IB
DwAwggEKAoIBAQD3N2PgT/7F07R6voi4bBcwoGZDdv65V6ivtrI/fAIcoFJLu7CP
V+0C1hYQUS33BMAHjexGkKWCFIHXFBh8hxp7gPSCjZ/D4dRIzD3h+UIPBjwm03IR
/Z9lm8t1WaLPTimZuQoK3gF9NycWdQ2dNahX/kYeSjlG49R2iqwDLAI4QD47wgWa
c+3cQqtWQ3cSiXhj6zpvuGGwZXM8RaHv4PKbtBkclsr9cC1wCf95jI30IUyLknVo
12K0U2qOBVAbChkHNNnoyEbM4IAK0mjKxjsKgYi4h3PvZ50yz1AntswqQj1w4sJt
b6uSyNgGmIIstdmaGNTgVzK0MSauj/PQKm+LAgMBAAGjggEOMIIBCjALBgNVHQ8E
BAMCBaAwCQYDVR0TBAIwADARBglghkgBhvhCAQEEBAMCBkAwMwYJYIZIAYb4QgEN
BCYWJE9wZW5TU0wgR2VuZXJhdGVkIFNlcnZlciBDZXJ0aWZpY2F0ZTAdBgNVHQ4E
FgQUnM/nTkCR/udoo51XxY+YUIy502kwdAYDVR0jBG0wa4AU9KfAzJFGr2TzkfIn
+Miyb4qHMnOhSKRGMEQxCzAJBgNVBAYTAkRFMQ8wDQYDVQQIDAZIZXNzZW4xFDAS
BgNVBAoMC3ByaXZhY3lpZGVhMQ4wDAYDVQQDDAVDQTAwMYIJAPvI66yDzRIHMBMG
A1UdJQQMMAoGCCsGAQUFBwMBMA0GCSqGSIb3DQEBCwUAA4IBAQC1kfYbrpF09/My
cB77zJT9s1eoywUkQMgu/uADXsGsqHQ8vwiHzAsP9onxRlx84vqPBKxqMGZpJPsK
FODmFvFJG4NK49r0ZU3cLDlqJieaWd1DmqU6LypgWj/Z7lLuff986mpMFomEKzz/
7WgVw8EGHFOOQbAPOQH2Gr29WiznxBpCEvyjy8HHeHr5HNrH9wDxpbhQ1LjLuM+F
BzWoVwX1W6cjR6N/DYmuuxEWMJsv1aXRQYKpzJsN2uFwwGAXX8VOPZ1RbHNHWoFt
05ZEGC7kC4svY3Hox038XdlnGckfkFmTJZ1qAtgkMV32I/KsaGhpy9vWXV9CzswR
9HXfjHNr
-----END CERTIFICATE-----
