Certificate:
    Data:
        Version: 3 (0x2)
        Serial Number: 268435687 (0x100000e7)
        Signature Algorithm: sha256WithRSAEncryption
        Issuer: C=DE, ST=Hessen, O=privacyidea, CN=CA001
        Validity
            Not Before: Sep 25 06:00:29 2019 GMT
            Not After : Sep 24 06:00:29 2020 GMT
        Subject: OU=realm1, CN=cornelius/emailAddress=user@localhost.localdomain
        Subject Public Key Info:
            Public Key Algorithm: rsaEncryption
                RSA Public-Key: (2048 bit)
                Modulus:
                    00:aa:3a:5c:d2:6f:44:79:56:18:65:9e:d3:be:52:
                    71:21:8e:85:a1:f8:87:0b:e3:4e:a2:41:01:bd:df:
                    68:0e:c0:05:89:f7:91:bf:37:90:df:45:aa:df:31:
                    32:73:bd:8d:38:d3:27:53:4b:5f:ee:bc:51:e1:bf:
                    16:a3:fc:20:91:bc:e0:7b:bb:64:d5:60:c9:82:ad:
                    d7:bb:ec:8c:b1:00:bf:5d:1b:fa:32:9f:12:e9:27:
                    4b:da:7d:31:6e:57:3d:19:de:40:07:40:f8:28:4f:
                    f5:64:91:2f:1e:04:73:19:c9:28:15:fb:49:2b:9d:
                    52:41:73:df:9f:31:77:83:9e:ef:9f:87:6d:8d:7a:
                    0f:21:e1:22:02:35:5e:39:d4:9e:38:4b:9d:b4:c1:
                    3e:f5:9a:da:38:00:ee:58:00:d7:10:9c:95:1e:af:
                    02:54:f3:87:0e:be:a4:eb:6e:9e:07:d8:23:02:d5:
                    ff:66:28:c6:16:1b:f7:79:a4:82:4d:e8:52:2a:b3:
                    96:2f:61:a3:0d:a7:78:b7:ee:12:ec:b2:a4:6b:5f:
                    3d:28:72:62:c5:dc:7a:a8:c3:3a:49:d9:9b:96:79:
                    f7:8e:0e:fd:37:9a:cb:eb:bd:bc:c2:dd:e8:7a:15:
                    ab:c1:07:21:39:62:09:99:69:d3:2e:56:c8:25:81:
                    88:3b
                Exponent: 65537 (0x10001)
        X509v3 extensions:
            X509v3 Key Usage: 
                Digital Signature, Key Encipherment
            X509v3 Basic Constraints: 
                CA:FALSE
            Netscape Cert Type: 
                SSL Server
            Netscape Comment: 
                OpenSSL Generated Server Certificate
            X509v3 Subject Key Identifier: 
                13:1E:35:78:7C:AD:3D:A9:2D:2B:35:40:A2:30:29:08:DD:B0:A9:0D
            X509v3 Authority Key Identifier: 
                keyid:F4:A7:C0:CC:91:46:AF:64:F3:91:F2:27:F8:C8:B2:6F:8A:87:32:73
                DirName:/C=DE/ST=Hessen/O=privacyidea/CN=CA001
                serial:FB:C8:EB:AC:83:CD:12:07

            X509v3 Extended Key Usage: 
                TLS Web Server Authentication
    Signature Algorithm: sha256WithRSAEncryption
         0f:32:cb:50:78:b7:23:79:3d:41:07:d0:6c:b0:dc:53:8e:d5:
         ac:44:93:a5:60:ca:a8:2a:d8:cf:e4:78:3e:a6:dd:46:2c:cc:
         2a:f0:92:76:2a:c0:96:78:96:a8:95:b1:b1:08:4a:de:48:45:
         0b:c1:45:e2:20:cd:39:52:8e:27:84:93:6c:3b:10:f7:15:db:
         1f:e5:a6:02:d7:2f:46:c6:ef:69:a4:4b:9c:1f:46:9e:aa:ff:
         7b:b4:bb:a5:71:5b:92:ae:7c:89:14:a1:5a:93:f4:d9:b9:b7:
         13:28:92:56:24:e7:46:0f:7e:3d:a2:f6:be:03:cb:4d:4a:d1:
         88:99:f7:0c:18:56:f3:8f:6e:f8:37:d4:77:a5:41:45:5e:a1:
         dd:2f:82:c2:8a:e0:91:9f:00:f9:2d:3f:37:9b:ab:4a:a9:34:
         37:93:3b:21:fb:f1:c5:07:8f:66:ce:96:56:8d:c5:82:44:3d:
         c8:08:8e:8d:c2:c5:4b:6a:0c:74:1b:2e:ca:fc:88:aa:f8:51:
         a0:ab:1a:cc:bc:df:9f:6b:f5:c7:25:d9:c5:38:38:9d:4d:8c:
         b8:bf:91:ed:89:83:30:20:b5:7f:92:6e:c0:43:c1:f0:e9:c1:
         31:b3:72:ed:9d:ae:22:52:d8:b6:d4:96:1a:5b:22:86:b9:da:
         23:28:88:17
-----BEGIN CERTIFICATE-----
MIIEIjCCAwqgAwIBAgIEEAAA5zANBgkqhkiG9w0BAQsFADBEMQswCQYDVQQGEwJE
RTEPMA0GA1UECAwGSGVzc2VuMRQwEgYDVQQKDAtwcml2YWN5aWRlYTEOMAwGA1UE
AwwFQ0EwMDEwHhcNMTkwOTI1MDYwMDI5WhcNMjAwOTI0MDYwMDI5WjBQMQ8wDQYD
VQQLDAZyZWFsbTExEjAQBgNVBAMMCWNvcm5lbGl1czEpMCcGCSqGSIb3DQEJARYa
dXNlckBsb2NhbGhvc3QubG9jYWxkb21haW4wggEiMA0GCSqGSIb3DQEBAQUAA4IB
DwAwggEKAoIBAQCqOlzSb0R5VhhlntO+UnEhjoWh+IcL406iQQG932gOwAWJ95G/
N5DfRarfMTJzvY040ydTS1/uvFHhvxaj/CCRvOB7u2TVYMmCrde77IyxAL9dG/oy
nxLpJ0vafTFuVz0Z3kAHQPgoT/VkkS8eBHMZySgV+0krnVJBc9+fMXeDnu+fh22N
eg8h4SICNV451J44S520wT71mto4AO5YANcQnJUerwJU84cOvqTrbp4H2CMC1f9m
KMYWG/d5pIJN6FIqs5YvYaMNp3i37hLssqRrXz0ocmLF3HqowzpJ2ZuWefeODv03
msvrvbzC3eh6FavBByE5YgmZadMuVsglgYg7AgMBAAGjggEOMIIBCjALBgNVHQ8E
BAMCBaAwCQYDVR0TBAIwADARBglghkgBhvhCAQEEBAMCBkAwMwYJYIZIAYb4QgEN
BCYWJE9wZW5TU0wgR2VuZXJhdGVkIFNlcnZlciBDZXJ0aWZpY2F0ZTAdBgNVHQ4E
FgQUEx41eHytPaktKzVAojApCN2wqQ0wdAYDVR0jBG0wa4AU9KfAzJFGr2TzkfIn
+Miyb4qHMnOhSKRGMEQxCzAJBgNVBAYTAkRFMQ8wDQYDVQQIDAZIZXNzZW4xFDAS
BgNVBAoMC3ByaXZhY3lpZGVhMQ4wDAYDVQQDDAVDQTAwMYIJAPvI66yDzRIHMBMG
A1UdJQQMMAoGCCsGAQUFBwMBMA0GCSqGSIb3DQEBCwUAA4IBAQAPMstQeLcjeT1B
B9BssNxTjtWsRJOlYMqoKtjP5Hg+pt1GLMwq8JJ2KsCWeJaolbGxCEreSEULwUXi
IM05Uo4nhJNsOxD3Fdsf5aYC1y9Gxu9ppEucH0aeqv97tLulcVuSrnyJFKFak/TZ
ubcTKJJWJOdGD349ova+A8tNStGImfcMGFbzj274N9R3pUFFXqHdL4LCiuCRnwD5
LT83m6tKqTQ3kzsh+/HFB49mzpZWjcWCRD3ICI6NwsVLagx0Gy7K/Iiq+FGgqxrM
vN+fa/XHJdnFODidTYy4v5HtiYMwILV/km7AQ8Hw6cExs3Ltna4iUti21JYaWyKG
udojKIgX
-----END CERTIFICATE-----
