Certificate:
    Data:
        Version: 3 (0x2)
        Serial Number: 268435684 (0x100000e4)
        Signature Algorithm: sha256WithRSAEncryption
        Issuer: C=DE, ST=Hessen, O=privacyidea, CN=CA001
        Validity
            Not Before: Sep 25 05:58:13 2019 GMT
            Not After : Sep 24 05:58:13 2020 GMT
        Subject: CN=Steve Test/emailAddress=steve@openssl.org
        Subject Public Key Info:
            Public Key Algorithm: rsaEncryption
                RSA Public-Key: (2048 bit)
                Modulus:
                    00:d2:81:89:20:51:48:0f:73:f4:11:32:24:d5:1f:
                    1c:fd:5c:f5:b6:e6:c5:f0:52:81:dc:d2:af:66:4a:
                    7c:93:31:61:5c:af:d1:6d:06:70:03:60:7c:72:0c:
                    88:dd:49:cd:9e:02:6c:d2:5a:d7:53:0f:f3:da:be:
                    69:64:b5:0f:0c:00:e3:b3:50:47:a3:b3:9b:ba:13:
                    50:d6:58:5a:4b:ab:39:e0:11:ca:0a:27:67:03:78:
                    22:66:6d:92:1e:1b:5c:49:ae:e6:6b:d1:8e:3b:9d:
                    06:d3:c6:ac:4d:53:43:10:ab:e8:96:c1:87:82:97:
                    99:8f:20:d3:99:12:37:31:84:e1:8a:ff:29:03:5f:
                    22:90:3e:7f:9b:e0:20:c1:ad:dc:ae:4c:39:1a:31:
                    96:17:02:8c:b2:d9:b4:0d:20:12:9b:7d:86:54:fd:
                    33:fd:c1:2a:62:46:f8:60:96:cf:6e:01:6f:22:df:
                    13:47:e7:97:ec:05:72:23:a3:62:f8:fa:ef:ac:9c:
                    72:f0:37:cb:2f:37:cf:90:a8:27:51:86:c6:d7:78:
                    08:8f:7e:25:a2:15:70:a2:fb:1c:b6:15:5e:a0:97:
                    8b:81:4c:09:28:8a:27:3b:94:bc:71:db:5b:71:37:
                    9a:2b:16:e0:6f:b5:c9:f5:4b:4f:20:ba:65:cf:af:
                    ad:ad
                Exponent: 65537 (0x10001)
        X509v3 extensions:
            X509v3 Key Usage: 
                Digital Signature, Key Encipherment
            X509v3 Basic Constraints: 
                CA:FALSE
            Netscape Cert Type: 
                SSL Server
            Netscape Comment: 
                OpenSSL Generated Server Certificate
            X509v3 Subject Key Identifier: 
                E5:25:6D:3E:AF:0D:DD:3F:4C:F2:45:19:39:D5:14:DB:7E:9C:C0:AD
            X509v3 Authority Key Identifier: 
                keyid:F4:A7:C0:CC:91:46:AF:64:F3:91:F2:27:F8:C8:B2:6F:8A:87:32:73
                DirName:/C=DE/ST=Hessen/O=privacyidea/CN=CA001
                serial:FB:C8:EB:AC:83:CD:12:07

            X509v3 Extended Key Usage: 
                TLS Web Server Authentication
    Signature Algorithm: sha256WithRSAEncryption
         73:43:e2:1e:0c:9f:a4:a2:bc:3f:af:44:1a:f8:24:c1:92:31:
         09:3c:99:de:c5:2d:fe:79:ea:72:02:4a:17:9b:15:2e:4b:3b:
         9f:8a:b4:24:15:4f:c7:b2:70:b0:9f:06:ed:e9:34:01:99:49:
         b3:8f:28:cd:93:45:54:90:91:dd:ef:62:a1:5f:39:85:76:44:
         45:4e:57:49:66:c5:31:d0:2b:f5:2e:52:7d:c1:8b:58:82:1b:
         10:51:07:fa:0f:33:d6:9c:2b:45:45:22:37:ea:4e:14:54:e8:
         dc:76:0e:ef:7b:34:b4:db:14:37:6c:ec:12:7b:2e:43:3c:74:
         f5:f3:59:9d:3b:8a:55:8d:e4:e3:b4:48:dd:e9:60:03:29:aa:
         75:f6:60:cb:5b:4a:3f:2f:3d:3e:70:c9:95:ba:a2:74:80:7b:
         f0:4e:e0:14:39:2a:ea:97:84:c8:e2:fa:c2:c7:4c:f5:69:1d:
         d8:09:2b:ee:04:b6:a3:ac:0d:0c:7f:00:61:2b:dd:db:ee:04:
         f8:70:a5:8f:8d:c0:92:de:18:ab:23:ee:bd:ea:9e:49:9a:e3:
         a5:b4:de:e7:dd:81:64:10:3b:58:ec:52:ed:a7:9d:0e:b8:e8:
         e8:47:4d:fb:57:cc:dc:8c:17:a9:96:49:c5:8c:91:2f:ce:76:
         99:37:fb:8a
-----BEGIN CERTIFICATE-----
MIIECTCCAvGgAwIBAgIEEAAA5DANBgkqhkiG9w0BAQsFADBEMQswCQYDVQQGEwJE
RTEPMA0GA1UECAwGSGVzc2VuMRQwEgYDVQQKDAtwcml2YWN5aWRlYTEOMAwGA1UE
AwwFQ0EwMDEwHhcNMTkwOTI1MDU1ODEzWhcNMjAwOTI0MDU1ODEzWjA3MRMwEQYD
VQQDDApTdGV2ZSBUZXN0MSAwHgYJKoZIhvcNAQkBFhFzdGV2ZUBvcGVuc3NsLm9y
ZzCCASIwDQYJKoZIhvcNAQEBBQADggEPADCCAQoCggEBANKBiSBRSA9z9BEyJNUf
HP1c9bbmxfBSgdzSr2ZKfJMxYVyv0W0GcANgfHIMiN1JzZ4CbNJa11MP89q+aWS1
DwwA47NQR6Ozm7oTUNZYWkurOeARygonZwN4ImZtkh4bXEmu5mvRjjudBtPGrE1T
QxCr6JbBh4KXmY8g05kSNzGE4Yr/KQNfIpA+f5vgIMGt3K5MORoxlhcCjLLZtA0g
Ept9hlT9M/3BKmJG+GCWz24BbyLfE0fnl+wFciOjYvj676yccvA3yy83z5CoJ1GG
xtd4CI9+JaIVcKL7HLYVXqCXi4FMCSiKJzuUvHHbW3E3misW4G+1yfVLTyC6Zc+v
ra0CAwEAAaOCAQ4wggEKMAsGA1UdDwQEAwIFoDAJBgNVHRMEAjAAMBEGCWCGSAGG
+EIBAQQEAwIGQDAzBglghkgBhvhCAQ0EJhYkT3BlblNTTCBHZW5lcmF0ZWQgU2Vy
dmVyIENlcnRpZmljYXRlMB0GA1UdDgQWBBTlJW0+rw3dP0zyRRk51RTbfpzArTB0
BgNVHSMEbTBrgBT0p8DMkUavZPOR8if4yLJviocyc6FIpEYwRDELMAkGA1UEBhMC
REUxDzANBgNVBAgMBkhlc3NlbjEUMBIGA1UECgwLcHJpdmFjeWlkZWExDjAMBgNV
BAMMBUNBMDAxggkA+8jrrIPNEgcwEwYDVR0lBAwwCgYIKwYBBQUHAwEwDQYJKoZI
hvcNAQELBQADggEBAHND4h4Mn6SivD+vRBr4JMGSMQk8md7FLf556nICShebFS5L
O5+KtCQVT8eycLCfBu3pNAGZSbOPKM2TRVSQkd3vYqFfOYV2REVOV0lmxTHQK/Uu
Un3Bi1iCGxBRB/oPM9acK0VFIjfqThRU6Nx2Du97NLTbFDds7BJ7LkM8dPXzWZ07
ilWN5OO0SN3pYAMpqnX2YMtbSj8vPT5wyZW6onSAe/BO4BQ5KuqXhMji+sLHTPVp
HdgJK+4EtqOsDQx/AGEr3dvuBPhwpY+NwJLeGKsj7r3qnkma46W03ufdgWQQO1js
Uu2nnQ646OhHTftXzNyMF6mWScWMkS/Odpk3+4o=
-----END CERTIFICATE-----
