Certificate:
    Data:
        Version: 3 (0x2)
        Serial Number: 268435685 (0x100000e5)
        Signature Algorithm: sha256WithRSAEncryption
        Issuer: C=DE, ST=Hessen, O=privacyidea, CN=CA001
        Validity
            Not Before: Sep 25 05:58:13 2019 GMT
            Not After : Oct 14 05:58:13 2021 GMT
        Subject: CN=Steve Test/emailAddress=steve@openssl.org
        Subject Public Key Info:
            Public Key Algorithm: rsaEncryption
                RSA Public-Key: (2048 bit)
                Modulus:
                    00:d2:81:89:20:51:48:0f:73:f4:11:32:24:d5:1f:
                    1c:fd:5c:f5:b6:e6:c5:f0:52:81:dc:d2:af:66:4a:
                    7c:93:31:61:5c:af:d1:6d:06:70:03:60:7c:72:0c:
                    88:dd:49:cd:9e:02:6c:d2:5a:d7:53:0f:f3:da:be:
                    69:64:b5:0f:0c:00:e3:b3:50:47:a3:b3:9b:ba:13:
                    50:d6:58:5a:4b:ab:39:e0:11:ca:0a:27:67:03:78:
                    22:66:6d:92:1e:1b:5c:49:ae:e6:6b:d1:8e:3b:9d:
                    06:d3:c6:ac:4d:53:43:10:ab:e8:96:c1:87:82:97:
                    99:8f:20:d3:99:12:37:31:84:e1:8a:ff:29:03:5f:
                    22:90:3e:7f:9b:e0:20:c1:ad:dc:ae:4c:39:1a:31:
                    96:17:02:8c:b2:d9:b4:0d:20:12:9b:7d:86:54:fd:
                    33:fd:c1:2a:62:46:f8:60:96:cf:6e:01:6f:22:df:
                    13:47:e7:97:ec:05:72:23:a3:62:f8:fa:ef:ac:9c:
                    72:f0:37:cb:2f:37:cf:90:a8:27:51:86:c6:d7:78:
                    08:8f:7e:25:a2:15:70:a2:fb:1c:b6:15:5e:a0:97:
                    8b:81:4c:09:28:8a:27:3b:94:bc:71:db:5b:71:37:
                    9a:2b:16:e0:6f:b5:c9:f5:4b:4f:20:ba:65:cf:af:
                    ad:ad
                Exponent: 65537 (0x10001)
        X509v3 extensions:
            X509v3 Key Usage: 
                Digital Signature, Key Encipherment
            X509v3 Basic Constraints: 
                CA:FALSE
            Netscape Cert Type: 
                SSL Server
            Netscape Comment: 
                OpenSSL Generated Server Certificate
            X509v3 Subject Key Identifier: 
                E5:25:6D:3E:AF:0D:DD:3F:4C:F2:45:19:39:D5:14:DB:7E:9C:C0:AD
            X509v3 Authority Key Identifier: 
                keyid:F4:A7:C0:CC:91:46:AF:64:F3:91:F2:27:F8:C8:B2:6F:8A:87:32:73
                DirName:/C=DE/ST=Hessen/O=privacyidea/CN=CA001
                serial:FB:C8:EB:AC:83:CD:12:07

            X509v3 Extended Key Usage: 
                TLS Web Server Authentication
    Signature Algorithm: sha256WithRSAEncryption
         4d:f7:6c:2b:60:2f:b0:1d:5b:68:bb:5d:8d:6a:7e:0d:1c:8f:
         4e:a0:37:f6:bc:2f:11:49:5e:89:b5:bf:00:f3:5b:b7:7b:a9:
         d6:8c:6a:43:4d:dc:cb:23:4d:7f:5a:15:67:56:2d:47:14:52:
         5e:a2:63:47:1c:56:a1:8d:27:d3:fc:4e:a5:ac:cb:31:60:ea:
         ec:f9:46:f2:30:61:9e:1d:c4:2f:ea:51:c1:1c:21:4c:9a:a7:
         6d:a9:80:5e:6a:15:3e:ef:f0:96:e4:90:8b:a5:5a:54:13:2f:
         f3:8d:39:04:18:d7:a6:c3:83:c7:e8:8c:5d:0d:e5:c7:8e:71:
         01:83:0f:16:85:34:07:a0:b3:e2:e4:c6:ba:fd:1a:95:d6:a2:
         57:83:a5:cb:83:4b:0a:71:00:89:34:d4:4e:5b:65:16:64:62:
         34:2d:9c:60:61:c3:31:b9:e8:58:65:36:ca:06:1e:15:e4:23:
         5b:85:f8:6d:21:ae:87:c2:7f:c7:00:d8:bd:64:f5:66:f4:55:
         da:07:5b:a1:76:ae:1b:8e:62:22:38:08:1c:e2:5d:d2:47:cc:
         e6:2c:6d:59:c2:7f:91:c7:3a:0e:02:85:eb:b7:94:75:64:76:
         29:df:08:12:ef:3a:03:f8:af:3b:63:ca:fb:28:a6:18:1c:27:
         1f:ed:62:39
-----BEGIN CERTIFICATE-----
MIIECTCCAvGgAwIBAgIEEAAA5TANBgkqhkiG9w0BAQsFADBEMQswCQYDVQQGEwJE
RTEPMA0GA1UECAwGSGVzc2VuMRQwEgYDVQQKDAtwcml2YWN5aWRlYTEOMAwGA1UE
AwwFQ0EwMDEwHhcNMTkwOTI1MDU1ODEzWhcNMjExMDE0MDU1ODEzWjA3MRMwEQYD
VQQDDApTdGV2ZSBUZXN0MSAwHgYJKoZIhvcNAQkBFhFzdGV2ZUBvcGVuc3NsLm9y
ZzCCASIwDQYJKoZIhvcNAQEBBQADggEPADCCAQoCggEBANKBiSBRSA9z9BEyJNUf
HP1c9bbmxfBSgdzSr2ZKfJMxYVyv0W0GcANgfHIMiN1JzZ4CbNJa11MP89q+aWS1
DwwA47NQR6Ozm7oTUNZYWkurOeARygonZwN4ImZtkh4bXEmu5mvRjjudBtPGrE1T
QxCr6JbBh4KXmY8g05kSNzGE4Yr/KQNfIpA+f5vgIMGt3K5MORoxlhcCjLLZtA0g
Ept9hlT9M/3BKmJG+GCWz24BbyLfE0fnl+wFciOjYvj676yccvA3yy83z5CoJ1GG
xtd4CI9+JaIVcKL7HLYVXqCXi4FMCSiKJzuUvHHbW3E3misW4G+1yfVLTyC6Zc+v
ra0CAwEAAaOCAQ4wggEKMAsGA1UdDwQEAwIFoDAJBgNVHRMEAjAAMBEGCWCGSAGG
+EIBAQQEAwIGQDAzBglghkgBhvhCAQ0EJhYkT3BlblNTTCBHZW5lcmF0ZWQgU2Vy
dmVyIENlcnRpZmljYXRlMB0GA1UdDgQWBBTlJW0+rw3dP0zyRRk51RTbfpzArTB0
BgNVHSMEbTBrgBT0p8DMkUavZPOR8if4yLJviocyc6FIpEYwRDELMAkGA1UEBhMC
REUxDzANBgNVBAgMBkhlc3NlbjEUMBIGA1UECgwLcHJpdmFjeWlkZWExDjAMBgNV
BAMMBUNBMDAxggkA+8jrrIPNEgcwEwYDVR0lBAwwCgYIKwYBBQUHAwEwDQYJKoZI
hvcNAQELBQADggEBAE33bCtgL7AdW2i7XY1qfg0cj06gN/a8LxFJXom1vwDzW7d7
qdaMakNN3MsjTX9aFWdWLUcUUl6iY0ccVqGNJ9P8TqWsyzFg6uz5RvIwYZ4dxC/q
UcEcIUyap22pgF5qFT7v8JbkkIulWlQTL/ONOQQY16bDg8fojF0N5ceOcQGDDxaF
NAegs+Lkxrr9GpXWoleDpcuDSwpxAIk01E5bZRZkYjQtnGBhwzG56FhlNsoGHhXk
I1uF+G0hrofCf8cA2L1k9Wb0VdoHW6F2rhuOYiI4CBziXdJHzOYsbVnCf5HHOg4C
heu3lHVkdinfCBLvOgP4rztjyvsophgcJx/tYjk=
-----END CERTIFICATE-----
