Certificate:
    Data:
        Version: 3 (0x2)
        Serial Number: 268435670 (0x100000d6)
        Signature Algorithm: sha256WithRSAEncryption
        Issuer: C=DE, ST=Hessen, O=privacyidea, CN=CA001
        Validity
            Not Before: Sep 25 09:50:28 2019 GMT
            Not After : Sep 24 09:50:28 2020 GMT
        Subject: C=DE, ST=Hessen, O=privacyidea, CN=requester.localdomain
        Subject Public Key Info:
            Public Key Algorithm: rsaEncryption
                RSA Public-Key: (2048 bit)
                Modulus:
                    00:cd:be:14:4f:fa:ce:01:3f:42:22:1b:1d:9c:af:
                    dd:92:d2:7f:db:6c:b7:3e:39:43:43:6b:13:03:f1:
                    05:f4:07:74:bc:76:69:28:0b:af:19:8e:d7:fc:e3:
                    cd:c6:58:f2:ca:7f:08:6d:53:fc:07:02:44:24:c6:
                    b4:34:4c:8c:04:fe:33:0e:40:e2:20:ba:02:73:5a:
                    f7:f5:4f:63:6e:cc:c6:b6:df:54:1d:37:39:7d:51:
                    36:26:5f:bd:dc:3f:a8:8b:6b:a2:ae:b6:9d:d6:21:
                    e7:df:41:b8:7a:28:2a:68:48:ca:a8:2d:ed:e1:e9:
                    46:5e:5a:72:6d:b4:84:38:87:91:fd:94:11:0b:28:
                    84:c6:c2:2f:2a:fb:01:f9:36:7a:09:75:d1:33:88:
                    3c:73:41:5b:c8:bf:94:89:70:a1:f0:c0:b9:2e:50:
                    53:1e:b1:17:64:69:f4:2d:81:e0:a9:0d:0e:32:e9:
                    ba:55:8a:85:f1:1b:6f:49:79:b4:7f:88:c3:0d:3e:
                    54:88:9b:3d:1f:38:8c:04:f3:ee:6a:63:2b:f5:c6:
                    db:b4:83:aa:c4:78:41:3a:7d:4b:e1:c8:3e:71:ca:
                    1b:61:59:ea:c6:c4:ca:32:5e:c9:e9:bf:12:29:e6:
                    c6:c3:63:fe:a0:55:da:7a:f1:60:98:4d:26:ed:fa:
                    70:2d
                Exponent: 65537 (0x10001)
        X509v3 extensions:
            X509v3 Key Usage: 
                Digital Signature, Key Encipherment
            X509v3 Basic Constraints: 
                CA:FALSE
            Netscape Cert Type: 
                SSL Server
            Netscape Comment: 
                OpenSSL Generated Server Certificate
            X509v3 Subject Key Identifier: 
                53:3F:ED:5D:09:07:B3:65:7B:AB:45:C9:24:5B:09:77:80:0A:96:ED
            X509v3 Authority Key Identifier: 
                keyid:F4:A7:C0:CC:91:46:AF:64:F3:91:F2:27:F8:C8:B2:6F:8A:87:32:73
                DirName:/C=DE/ST=Hessen/O=privacyidea/CN=CA001
                serial:FB:C8:EB:AC:83:CD:12:07

            X509v3 Extended Key Usage: 
                TLS Web Server Authentication
    Signature Algorithm: sha256WithRSAEncryption
         8c:d4:89:3c:cb:b2:aa:40:c4:16:b0:d8:29:79:d1:58:f2:ff:
         bf:b0:f1:41:84:ae:15:ae:b1:62:fd:63:a4:56:4e:b0:af:ef:
         c5:b1:a6:3a:a5:0f:89:94:56:3c:68:00:92:cd:4d:59:13:dd:
         2d:62:3c:e6:71:fd:07:d0:fe:c4:ab:ae:f2:fa:c2:cf:8a:2b:
         93:0e:40:ee:01:bd:18:d7:0a:c2:12:8b:57:05:56:7a:ba:84:
         df:27:ad:19:f9:89:c3:d2:60:c9:47:b7:c5:7b:7f:f3:2f:69:
         05:95:0d:8c:99:ff:63:bd:31:4b:56:22:12:3b:ac:8d:7b:cc:
         65:a7:e4:25:86:dd:1d:7d:5e:80:05:60:a8:9a:48:aa:cb:43:
         e2:d3:7e:72:cc:50:10:49:4a:7f:e9:ca:71:28:42:c4:99:f6:
         34:4f:df:07:65:b6:7b:0b:e0:57:b2:ae:f6:a8:25:a2:5b:03:
         b2:a7:ae:b7:05:f8:4a:de:26:c5:2e:a0:23:c6:22:56:e7:db:
         37:dc:dd:71:08:36:f8:3a:c5:cb:68:3a:47:9f:85:05:8b:10:
         5e:e4:13:f7:e5:fe:84:0b:24:00:ac:f9:a9:dc:5d:f7:86:bf:
         41:ca:4c:4d:a2:61:8e:33:f0:5a:a1:7b:ea:ef:d1:35:db:78:
         77:3f:eb:aa
-----BEGIN CERTIFICATE-----
MIIEJjCCAw6gAwIBAgIEEAAA1jANBgkqhkiG9w0BAQsFADBEMQswCQYDVQQGEwJE
RTEPMA0GA1UECAwGSGVzc2VuMRQwEgYDVQQKDAtwcml2YWN5aWRlYTEOMAwGA1UE
AwwFQ0EwMDEwHhcNMTkwOTI1MDk1MDI4WhcNMjAwOTI0MDk1MDI4WjBUMQswCQYD
VQQGEwJERTEPMA0GA1UECAwGSGVzc2VuMRQwEgYDVQQKDAtwcml2YWN5aWRlYTEe
MBwGA1UEAwwVcmVxdWVzdGVyLmxvY2FsZG9tYWluMIIBIjANBgkqhkiG9w0BAQEF
AAOCAQ8AMIIBCgKCAQEAzb4UT/rOAT9CIhsdnK/dktJ/22y3PjlDQ2sTA/EF9Ad0
vHZpKAuvGY7X/OPNxljyyn8IbVP8BwJEJMa0NEyMBP4zDkDiILoCc1r39U9jbszG
tt9UHTc5fVE2Jl+93D+oi2uirrad1iHn30G4eigqaEjKqC3t4elGXlpybbSEOIeR
/ZQRCyiExsIvKvsB+TZ6CXXRM4g8c0FbyL+UiXCh8MC5LlBTHrEXZGn0LYHgqQ0O
Mum6VYqF8RtvSXm0f4jDDT5UiJs9HziMBPPuamMr9cbbtIOqxHhBOn1L4cg+ccob
YVnqxsTKMl7J6b8SKebGw2P+oFXaevFgmE0m7fpwLQIDAQABo4IBDjCCAQowCwYD
VR0PBAQDAgWgMAkGA1UdEwQCMAAwEQYJYIZIAYb4QgEBBAQDAgZAMDMGCWCGSAGG
+EIBDQQmFiRPcGVuU1NMIEdlbmVyYXRlZCBTZXJ2ZXIgQ2VydGlmaWNhdGUwHQYD
VR0OBBYEFFM/7V0JB7Nle6tFySRbCXeACpbtMHQGA1UdIwRtMGuAFPSnwMyRRq9k
85HyJ/jIsm+KhzJzoUikRjBEMQswCQYDVQQGEwJERTEPMA0GA1UECAwGSGVzc2Vu
MRQwEgYDVQQKDAtwcml2YWN5aWRlYTEOMAwGA1UEAwwFQ0EwMDGCCQD7yOusg80S
BzATBgNVHSUEDDAKBggrBgEFBQcDATANBgkqhkiG9w0BAQsFAAOCAQEAjNSJPMuy
qkDEFrDYKXnRWPL/v7DxQYSuFa6xYv1jpFZOsK/vxbGmOqUPiZRWPGgAks1NWRPd
LWI85nH9B9D+xKuu8vrCz4orkw5A7gG9GNcKwhKLVwVWerqE3yetGfmJw9JgyUe3
xXt/8y9pBZUNjJn/Y70xS1YiEjusjXvMZafkJYbdHX1egAVgqJpIqstD4tN+csxQ
EElKf+nKcShCxJn2NE/fB2W2ewvgV7Ku9qglolsDsqeutwX4St4mxS6gI8YiVufb
N9zdcQg2+DrFy2g6R5+FBYsQXuQT9+X+hAskAKz5qdxd94a/QcpMTaJhjjPwWqF7
6u/RNdt4dz/rqg==
-----END CERTIFICATE-----
