Certificate:
    Data:
        Version: 3 (0x2)
        Serial Number: 268435681 (0x100000e1)
        Signature Algorithm: sha256WithRSAEncryption
        Issuer: C=DE, ST=Hessen, O=privacyidea, CN=CA001
        Validity
            Not Before: Sep 25 05:56:42 2019 GMT
            Not After : Sep 24 05:56:42 2020 GMT
        Subject: OU=realm1, CN=cornelius/emailAddress=user@localhost.localdomain
        Subject Public Key Info:
            Public Key Algorithm: rsaEncryption
                RSA Public-Key: (2048 bit)
                Modulus:
                    00:c1:63:b0:11:3a:5f:6c:fc:42:97:6d:61:99:30:
                    0b:f1:87:32:79:b8:b1:f4:bb:9b:57:7d:d7:f2:f5:
                    d0:d1:46:d1:91:c9:c8:e7:05:a9:1d:f8:66:6a:28:
                    ba:b6:5f:f6:4b:54:c8:49:72:69:80:64:66:15:b7:
                    60:67:47:52:2e:19:24:31:1d:b7:73:52:47:57:2f:
                    58:29:1b:5b:d3:61:ce:5e:2a:da:35:48:58:e2:89:
                    0a:df:b3:ed:97:98:43:66:a6:cb:ab:f0:74:10:0d:
                    46:5b:38:b2:cc:05:52:84:da:a8:2b:4c:aa:c9:10:
                    33:2c:3e:60:f5:32:ef:08:90:f7:31:48:28:78:00:
                    31:5d:e3:10:45:e7:60:72:ba:e2:d3:49:de:7d:bf:
                    6b:5e:f5:fc:ad:5a:40:8c:1e:ff:68:1a:bb:50:43:
                    a8:b5:cb:e9:53:9c:22:8b:4f:b7:95:ff:f0:d6:22:
                    16:66:f9:39:9c:d3:23:47:f5:93:da:40:8b:ce:ed:
                    c6:45:da:28:80:2c:a3:9d:7c:8d:e0:b0:2a:00:d5:
                    9b:cb:01:e8:19:de:26:15:eb:bf:85:0a:15:29:13:
                    98:27:bb:08:2d:5e:5e:54:ea:f7:b0:9e:c9:24:99:
                    82:f6:0c:00:9e:9c:da:a7:81:66:d3:0f:19:dd:39:
                    e9:7d
                Exponent: 65537 (0x10001)
        X509v3 extensions:
            X509v3 Key Usage: 
                Digital Signature, Key Encipherment
            X509v3 Basic Constraints: 
                CA:FALSE
            Netscape Cert Type: 
                SSL Server
            Netscape Comment: 
                OpenSSL Generated Server Certificate
            X509v3 Subject Key Identifier: 
                F3:69:0D:A8:A2:7E:91:F4:B7:F8:64:D0:2E:94:E5:B5:F6:24:3F:A8
            X509v3 Authority Key Identifier: 
                keyid:F4:A7:C0:CC:91:46:AF:64:F3:91:F2:27:F8:C8:B2:6F:8A:87:32:73
                DirName:/C=DE/ST=Hessen/O=privacyidea/CN=CA001
                serial:FB:C8:EB:AC:83:CD:12:07

            X509v3 Extended Key Usage: 
                TLS Web Server Authentication
    Signature Algorithm: sha256WithRSAEncryption
         a9:17:30:38:72:0f:e6:df:a3:20:e3:97:0e:8f:d9:6d:fb:c0:
         a6:96:d4:69:07:5c:c4:73:78:08:6b:79:1d:53:03:41:be:68:
         eb:06:1f:3d:8f:13:9b:f6:93:46:8c:84:cf:0c:7e:4f:b4:80:
         81:66:69:d5:9c:ed:37:24:b2:ee:a3:65:58:6f:2d:be:ae:93:
         2a:2e:78:f8:9f:58:03:9b:a4:a2:64:ac:ff:e0:7e:1f:13:00:
         cb:f0:f1:f7:fd:51:a0:e3:71:71:e9:06:07:99:ec:fc:cf:db:
         6d:e2:70:cc:3b:15:93:53:7c:6a:28:57:a7:e0:69:7b:31:dc:
         9f:b2:26:17:cb:f8:d7:f9:53:2e:84:92:cd:0c:d2:bf:ff:86:
         b3:4f:32:94:af:d4:54:f8:16:2e:19:a3:ed:a1:77:bc:e8:36:
         0f:3b:38:da:d4:70:e9:ab:72:a5:cd:80:1b:85:89:40:fe:60:
         09:8f:c1:91:a5:1a:ab:d5:b2:26:25:ab:55:77:4c:80:51:ce:
         a5:2c:96:ae:20:93:43:2f:8d:ba:0b:b0:61:f4:cb:3a:a0:8e:
         46:e0:f5:f6:ad:d0:52:1c:59:a0:ff:bf:17:ab:83:23:e5:20:
         e0:0f:ae:0a:99:17:f9:95:4c:fa:5a:c0:3a:0c:f9:b8:12:62:
         27:f8:12:51
-----BEGIN CERTIFICATE-----
MIIEIjCCAwqgAwIBAgIEEAAA4TANBgkqhkiG9w0BAQsFADBEMQswCQYDVQQGEwJE
RTEPMA0GA1UECAwGSGVzc2VuMRQwEgYDVQQKDAtwcml2YWN5aWRlYTEOMAwGA1UE
AwwFQ0EwMDEwHhcNMTkwOTI1MDU1NjQyWhcNMjAwOTI0MDU1NjQyWjBQMQ8wDQYD
VQQLDAZyZWFsbTExEjAQBgNVBAMMCWNvcm5lbGl1czEpMCcGCSqGSIb3DQEJARYa
dXNlckBsb2NhbGhvc3QubG9jYWxkb21haW4wggEiMA0GCSqGSIb3DQEBAQUAA4IB
DwAwggEKAoIBAQDBY7AROl9s/EKXbWGZMAvxhzJ5uLH0u5tXfdfy9dDRRtGRycjn
Bakd+GZqKLq2X/ZLVMhJcmmAZGYVt2BnR1IuGSQxHbdzUkdXL1gpG1vTYc5eKto1
SFjiiQrfs+2XmENmpsur8HQQDUZbOLLMBVKE2qgrTKrJEDMsPmD1Mu8IkPcxSCh4
ADFd4xBF52ByuuLTSd59v2te9fytWkCMHv9oGrtQQ6i1y+lTnCKLT7eV//DWIhZm
+Tmc0yNH9ZPaQIvO7cZF2iiALKOdfI3gsCoA1ZvLAegZ3iYV67+FChUpE5gnuwgt
Xl5U6vewnskkmYL2DACenNqngWbTDxndOel9AgMBAAGjggEOMIIBCjALBgNVHQ8E
BAMCBaAwCQYDVR0TBAIwADARBglghkgBhvhCAQEEBAMCBkAwMwYJYIZIAYb4QgEN
BCYWJE9wZW5TU0wgR2VuZXJhdGVkIFNlcnZlciBDZXJ0aWZpY2F0ZTAdBgNVHQ4E
FgQU82kNqKJ+kfS3+GTQLpTltfYkP6gwdAYDVR0jBG0wa4AU9KfAzJFGr2TzkfIn
+Miyb4qHMnOhSKRGMEQxCzAJBgNVBAYTAkRFMQ8wDQYDVQQIDAZIZXNzZW4xFDAS
BgNVBAoMC3ByaXZhY3lpZGVhMQ4wDAYDVQQDDAVDQTAwMYIJAPvI66yDzRIHMBMG
A1UdJQQMMAoGCCsGAQUFBwMBMA0GCSqGSIb3DQEBCwUAA4IBAQCpFzA4cg/m36Mg
45cOj9lt+8CmltRpB1zEc3gIa3kdUwNBvmjrBh89jxOb9pNGjITPDH5PtICBZmnV
nO03JLLuo2VYby2+rpMqLnj4n1gDm6SiZKz/4H4fEwDL8PH3/VGg43Fx6QYHmez8
z9tt4nDMOxWTU3xqKFen4Gl7MdyfsiYXy/jX+VMuhJLNDNK//4azTzKUr9RU+BYu
GaPtoXe86DYPOzja1HDpq3KlzYAbhYlA/mAJj8GRpRqr1bImJatVd0yAUc6lLJau
IJNDL426C7Bh9Ms6oI5G4PX2rdBSHFmg/78Xq4Mj5SDgD64KmRf5lUz6WsA6DPm4
EmIn+BJR
-----END CERTIFICATE-----
