Certificate:
    Data:
        Version: 3 (0x2)
        Serial Number: 268435691 (0x100000eb)
        Signature Algorithm: sha256WithRSAEncryption
        Issuer: C=DE, ST=Hessen, O=privacyidea, CN=CA001
        Validity
            Not Before: Aug 14 19:40:39 2019 GMT
            Not After : Aug 13 19:40:39 2020 GMT
        Subject: C=DE, ST=Hessen, O=privacyidea, CN=requester.localdomain
        Subject Public Key Info:
            Public Key Algorithm: rsaEncryption
                RSA Public-Key: (2048 bit)
                Modulus:
                    00:cd:be:14:4f:fa:ce:01:3f:42:22:1b:1d:9c:af:
                    dd:92:d2:7f:db:6c:b7:3e:39:43:43:6b:13:03:f1:
                    05:f4:07:74:bc:76:69:28:0b:af:19:8e:d7:fc:e3:
                    cd:c6:58:f2:ca:7f:08:6d:53:fc:07:02:44:24:c6:
                    b4:34:4c:8c:04:fe:33:0e:40:e2:20:ba:02:73:5a:
                    f7:f5:4f:63:6e:cc:c6:b6:df:54:1d:37:39:7d:51:
                    36:26:5f:bd:dc:3f:a8:8b:6b:a2:ae:b6:9d:d6:21:
                    e7:df:41:b8:7a:28:2a:68:48:ca:a8:2d:ed:e1:e9:
                    46:5e:5a:72:6d:b4:84:38:87:91:fd:94:11:0b:28:
                    84:c6:c2:2f:2a:fb:01:f9:36:7a:09:75:d1:33:88:
                    3c:73:41:5b:c8:bf:94:89:70:a1:f0:c0:b9:2e:50:
                    53:1e:b1:17:64:69:f4:2d:81:e0:a9:0d:0e:32:e9:
                    ba:55:8a:85:f1:1b:6f:49:79:b4:7f:88:c3:0d:3e:
                    54:88:9b:3d:1f:38:8c:04:f3:ee:6a:63:2b:f5:c6:
                    db:b4:83:aa:c4:78:41:3a:7d:4b:e1:c8:3e:71:ca:
                    1b:61:59:ea:c6:c4:ca:32:5e:c9:e9:bf:12:29:e6:
                    c6:c3:63:fe:a0:55:da:7a:f1:60:98:4d:26:ed:fa:
                    70:2d
                Exponent: 65537 (0x10001)
        X509v3 extensions:
            X509v3 Key Usage: 
                Digital Signature, Key Encipherment
            X509v3 Basic Constraints: 
                CA:FALSE
            Netscape Cert Type: 
                SSL Server
            Netscape Comment: 
                OpenSSL Generated Server Certificate
            X509v3 Subject Key Identifier: 
                53:3F:ED:5D:09:07:B3:65:7B:AB:45:C9:24:5B:09:77:80:0A:96:ED
            X509v3 Authority Key Identifier: 
                keyid:F4:A7:C0:CC:91:46:AF:64:F3:91:F2:27:F8:C8:B2:6F:8A:87:32:73
                DirName:/C=DE/ST=Hessen/O=privacyidea/CN=CA001
                serial:FB:C8:EB:AC:83:CD:12:07

            X509v3 Extended Key Usage: 
                TLS Web Server Authentication
    Signature Algorithm: sha256WithRSAEncryption
         5d:d4:e5:2f:18:62:35:80:d2:a9:83:02:ef:29:29:45:7f:9d:
         0a:91:f3:e6:a1:79:fb:79:ab:87:dc:b2:b6:cb:ed:6c:8a:2d:
         27:b0:ad:22:98:84:63:57:9a:af:db:c0:63:5e:af:93:fc:d7:
         45:31:21:79:d2:53:52:54:be:2a:e1:f2:7a:bc:be:e5:66:cc:
         81:0c:10:67:19:7a:6d:3b:47:b4:55:d0:80:88:05:6b:6a:85:
         18:c5:76:ef:44:85:5e:c7:e0:43:61:15:ef:e1:f2:16:c0:74:
         9b:a2:73:43:73:e2:9d:a9:3c:ed:18:9a:a4:40:33:46:ba:bd:
         9a:82:dd:e0:cd:0a:ee:cf:b5:29:19:c2:31:bb:01:f5:1e:11:
         d0:c9:32:b0:19:de:4c:8a:5b:d6:73:5b:0a:c7:6f:0d:88:ff:
         7f:ee:af:f4:fd:01:3f:04:8d:14:73:b1:2e:0b:01:62:b5:ad:
         c4:ef:8b:07:5a:e7:10:f6:bd:48:a6:0a:66:f2:05:bb:b1:f1:
         41:ee:b1:6b:ad:74:9f:a3:1e:42:31:a2:b4:0a:52:a0:35:71:
         40:ae:4e:6c:41:07:9b:fe:12:7c:cf:4b:77:80:2e:74:91:ec:
         67:b6:da:0a:5c:0e:77:38:cb:47:4a:98:6c:61:84:8e:33:27:
         8a:57:f6:71
-----BEGIN CERTIFICATE-----
MIIEJjCCAw6gAwIBAgIEEAAA6zANBgkqhkiG9w0BAQsFADBEMQswCQYDVQQGEwJE
RTEPMA0GA1UECAwGSGVzc2VuMRQwEgYDVQQKDAtwcml2YWN5aWRlYTEOMAwGA1UE
AwwFQ0EwMDEwHhcNMTkwODE0MTk0MDM5WhcNMjAwODEzMTk0MDM5WjBUMQswCQYD
VQQGEwJERTEPMA0GA1UECAwGSGVzc2VuMRQwEgYDVQQKDAtwcml2YWN5aWRlYTEe
MBwGA1UEAwwVcmVxdWVzdGVyLmxvY2FsZG9tYWluMIIBIjANBgkqhkiG9w0BAQEF
AAOCAQ8AMIIBCgKCAQEAzb4UT/rOAT9CIhsdnK/dktJ/22y3PjlDQ2sTA/EF9Ad0
vHZpKAuvGY7X/OPNxljyyn8IbVP8BwJEJMa0NEyMBP4zDkDiILoCc1r39U9jbszG
tt9UHTc5fVE2Jl+93D+oi2uirrad1iHn30G4eigqaEjKqC3t4elGXlpybbSEOIeR
/ZQRCyiExsIvKvsB+TZ6CXXRM4g8c0FbyL+UiXCh8MC5LlBTHrEXZGn0LYHgqQ0O
Mum6VYqF8RtvSXm0f4jDDT5UiJs9HziMBPPuamMr9cbbtIOqxHhBOn1L4cg+ccob
YVnqxsTKMl7J6b8SKebGw2P+oFXaevFgmE0m7fpwLQIDAQABo4IBDjCCAQowCwYD
VR0PBAQDAgWgMAkGA1UdEwQCMAAwEQYJYIZIAYb4QgEBBAQDAgZAMDMGCWCGSAGG
+EIBDQQmFiRPcGVuU1NMIEdlbmVyYXRlZCBTZXJ2ZXIgQ2VydGlmaWNhdGUwHQYD
VR0OBBYEFFM/7V0JB7Nle6tFySRbCXeACpbtMHQGA1UdIwRtMGuAFPSnwMyRRq9k
85HyJ/jIsm+KhzJzoUikRjBEMQswCQYDVQQGEwJERTEPMA0GA1UECAwGSGVzc2Vu
MRQwEgYDVQQKDAtwcml2YWN5aWRlYTEOMAwGA1UEAwwFQ0EwMDGCCQD7yOusg80S
BzATBgNVHSUEDDAKBggrBgEFBQcDATANBgkqhkiG9w0BAQsFAAOCAQEAXdTlLxhi
NYDSqYMC7ykpRX+dCpHz5qF5+3mrh9yytsvtbIotJ7CtIpiEY1ear9vAY16vk/zX
RTEhedJTUlS+KuHyery+5WbMgQwQZxl6bTtHtFXQgIgFa2qFGMV270SFXsfgQ2EV
7+HyFsB0m6JzQ3Pinak87RiapEAzRrq9moLd4M0K7s+1KRnCMbsB9R4R0MkysBne
TIpb1nNbCsdvDYj/f+6v9P0BPwSNFHOxLgsBYrWtxO+LB1rnEPa9SKYKZvIFu7Hx
Qe6xa610n6MeQjGitApSoDVxQK5ObEEHm/4SfM9Ld4AudJHsZ7baClwOdzjLR0qY
bGGEjjMnilf2cQ==
-----END CERTIFICATE-----
