Certificate:
    Data:
        Version: 3 (0x2)
        Serial Number: 268435686 (0x100000e6)
        Signature Algorithm: sha256WithRSAEncryption
        Issuer: C=DE, ST=Hessen, O=privacyidea, CN=CA001
        Validity
            Not Before: Sep 25 06:00:29 2019 GMT
            Not After : Sep 24 06:00:29 2020 GMT
        Subject: C=DE, ST=Hessen, O=privacyidea, CN=requester.localdomain
        Subject Public Key Info:
            Public Key Algorithm: rsaEncryption
                RSA Public-Key: (2048 bit)
                Modulus:
                    00:cd:be:14:4f:fa:ce:01:3f:42:22:1b:1d:9c:af:
                    dd:92:d2:7f:db:6c:b7:3e:39:43:43:6b:13:03:f1:
                    05:f4:07:74:bc:76:69:28:0b:af:19:8e:d7:fc:e3:
                    cd:c6:58:f2:ca:7f:08:6d:53:fc:07:02:44:24:c6:
                    b4:34:4c:8c:04:fe:33:0e:40:e2:20:ba:02:73:5a:
                    f7:f5:4f:63:6e:cc:c6:b6:df:54:1d:37:39:7d:51:
                    36:26:5f:bd:dc:3f:a8:8b:6b:a2:ae:b6:9d:d6:21:
                    e7:df:41:b8:7a:28:2a:68:48:ca:a8:2d:ed:e1:e9:
                    46:5e:5a:72:6d:b4:84:38:87:91:fd:94:11:0b:28:
                    84:c6:c2:2f:2a:fb:01:f9:36:7a:09:75:d1:33:88:
                    3c:73:41:5b:c8:bf:94:89:70:a1:f0:c0:b9:2e:50:
                    53:1e:b1:17:64:69:f4:2d:81:e0:a9:0d:0e:32:e9:
                    ba:55:8a:85:f1:1b:6f:49:79:b4:7f:88:c3:0d:3e:
                    54:88:9b:3d:1f:38:8c:04:f3:ee:6a:63:2b:f5:c6:
                    db:b4:83:aa:c4:78:41:3a:7d:4b:e1:c8:3e:71:ca:
                    1b:61:59:ea:c6:c4:ca:32:5e:c9:e9:bf:12:29:e6:
                    c6:c3:63:fe:a0:55:da:7a:f1:60:98:4d:26:ed:fa:
                    70:2d
                Exponent: 65537 (0x10001)
        X509v3 extensions:
            X509v3 Key Usage: 
                Digital Signature, Key Encipherment
            X509v3 Basic Constraints: 
                CA:FALSE
            Netscape Cert Type: 
                SSL Server
            Netscape Comment: 
                OpenSSL Generated Server Certificate
            X509v3 Subject Key Identifier: 
                53:3F:ED:5D:09:07:B3:65:7B:AB:45:C9:24:5B:09:77:80:0A:96:ED
            X509v3 Authority Key Identifier: 
                keyid:F4:A7:C0:CC:91:46:AF:64:F3:91:F2:27:F8:C8:B2:6F:8A:87:32:73
                DirName:/C=DE/ST=Hessen/O=privacyidea/CN=CA001
                serial:FB:C8:EB:AC:83:CD:12:07

            X509v3 Extended Key Usage: 
                TLS Web Server Authentication
    Signature Algorithm: sha256WithRSAEncryption
         5d:49:c3:98:3d:79:da:39:4e:49:45:95:4a:a7:0a:6a:d7:55:
         33:60:c2:2a:20:43:82:9a:33:42:6c:ee:6e:08:18:b4:50:74:
         0e:d3:96:a4:5d:7b:8e:49:84:99:f3:31:c4:17:c4:0c:9d:ea:
         b1:df:63:58:7b:24:3b:fc:48:f0:40:29:89:75:01:13:56:14:
         24:57:ae:57:52:2a:09:29:db:a7:58:db:33:07:01:43:f0:7f:
         5c:d2:08:d0:e1:7a:da:a1:14:bb:8d:d5:9a:49:35:17:15:63:
         c5:9b:cb:15:1a:03:30:47:dc:51:d5:e3:c9:8b:f7:01:08:45:
         cf:2b:a2:3d:94:9f:aa:56:0e:88:ab:24:64:ba:4e:ce:34:86:
         0b:dc:a0:54:a3:08:76:b7:07:15:4f:8d:be:69:87:a6:bb:c6:
         90:68:5d:6c:7f:f8:09:d9:f8:e2:7d:2a:9e:6f:09:1c:40:ce:
         f8:16:cf:a3:4f:cb:09:c1:1f:63:c9:f2:56:b3:44:6d:a4:5f:
         1c:11:be:24:2f:74:62:c5:be:15:7f:bf:c2:dd:2d:78:1c:62:
         63:2c:04:ae:ff:95:6e:8f:30:63:f2:c9:4a:e5:db:e1:49:13:
         14:c3:d3:ee:74:90:7f:8f:01:30:80:3d:48:02:a6:d9:f4:02:
         1e:c0:7a:1c
-----BEGIN CERTIFICATE-----
MIIEJjCCAw6gAwIBAgIEEAAA5jANBgkqhkiG9w0BAQsFADBEMQswCQYDVQQGEwJE
RTEPMA0GA1UECAwGSGVzc2VuMRQwEgYDVQQKDAtwcml2YWN5aWRlYTEOMAwGA1UE
AwwFQ0EwMDEwHhcNMTkwOTI1MDYwMDI5WhcNMjAwOTI0MDYwMDI5WjBUMQswCQYD
VQQGEwJERTEPMA0GA1UECAwGSGVzc2VuMRQwEgYDVQQKDAtwcml2YWN5aWRlYTEe
MBwGA1UEAwwVcmVxdWVzdGVyLmxvY2FsZG9tYWluMIIBIjANBgkqhkiG9w0BAQEF
AAOCAQ8AMIIBCgKCAQEAzb4UT/rOAT9CIhsdnK/dktJ/22y3PjlDQ2sTA/EF9Ad0
vHZpKAuvGY7X/OPNxljyyn8IbVP8BwJEJMa0NEyMBP4zDkDiILoCc1r39U9jbszG
tt9UHTc5fVE2Jl+93D+oi2uirrad1iHn30G4eigqaEjKqC3t4elGXlpybbSEOIeR
/ZQRCyiExsIvKvsB+TZ6CXXRM4g8c0FbyL+UiXCh8MC5LlBTHrEXZGn0LYHgqQ0O
Mum6VYqF8RtvSXm0f4jDDT5UiJs9HziMBPPuamMr9cbbtIOqxHhBOn1L4cg+ccob
YVnqxsTKMl7J6b8SKebGw2P+oFXaevFgmE0m7fpwLQIDAQABo4IBDjCCAQowCwYD
VR0PBAQDAgWgMAkGA1UdEwQCMAAwEQYJYIZIAYb4QgEBBAQDAgZAMDMGCWCGSAGG
+EIBDQQmFiRPcGVuU1NMIEdlbmVyYXRlZCBTZXJ2ZXIgQ2VydGlmaWNhdGUwHQYD
VR0OBBYEFFM/7V0JB7Nle6tFySRbCXeACpbtMHQGA1UdIwRtMGuAFPSnwMyRRq9k
85HyJ/jIsm+KhzJzoUikRjBEMQswCQYDVQQGEwJERTEPMA0GA1UECAwGSGVzc2Vu
MRQwEgYDVQQKDAtwcml2YWN5aWRlYTEOMAwGA1UEAwwFQ0EwMDGCCQD7yOusg80S
BzATBgNVHSUEDDAKBggrBgEFBQcDATANBgkqhkiG9w0BAQsFAAOCAQEAXUnDmD15
2jlOSUWVSqcKatdVM2DCKiBDgpozQmzubggYtFB0DtOWpF17jkmEmfMxxBfEDJ3q
sd9jWHskO/xI8EApiXUBE1YUJFeuV1IqCSnbp1jbMwcBQ/B/XNII0OF62qEUu43V
mkk1FxVjxZvLFRoDMEfcUdXjyYv3AQhFzyuiPZSfqlYOiKskZLpOzjSGC9ygVKMI
drcHFU+NvmmHprvGkGhdbH/4Cdn44n0qnm8JHEDO+BbPo0/LCcEfY8nyVrNEbaRf
HBG+JC90YsW+FX+/wt0teBxiYywErv+Vbo8wY/LJSuXb4UkTFMPT7nSQf48BMIA9
SAKm2fQCHsB6HA==
-----END CERTIFICATE-----
