Certificate:
    Data:
        Version: 3 (0x2)
        Serial Number: 268435669 (0x100000d5)
        Signature Algorithm: sha256WithRSAEncryption
        Issuer: C=DE, ST=Hessen, O=privacyidea, CN=CA001
        Validity
            Not Before: Sep 25 09:48:19 2019 GMT
            Not After : Oct 14 09:48:19 2021 GMT
        Subject: CN=Steve Test/emailAddress=steve@openssl.org
        Subject Public Key Info:
            Public Key Algorithm: rsaEncryption
                RSA Public-Key: (2048 bit)
                Modulus:
                    00:d2:81:89:20:51:48:0f:73:f4:11:32:24:d5:1f:
                    1c:fd:5c:f5:b6:e6:c5:f0:52:81:dc:d2:af:66:4a:
                    7c:93:31:61:5c:af:d1:6d:06:70:03:60:7c:72:0c:
                    88:dd:49:cd:9e:02:6c:d2:5a:d7:53:0f:f3:da:be:
                    69:64:b5:0f:0c:00:e3:b3:50:47:a3:b3:9b:ba:13:
                    50:d6:58:5a:4b:ab:39:e0:11:ca:0a:27:67:03:78:
                    22:66:6d:92:1e:1b:5c:49:ae:e6:6b:d1:8e:3b:9d:
                    06:d3:c6:ac:4d:53:43:10:ab:e8:96:c1:87:82:97:
                    99:8f:20:d3:99:12:37:31:84:e1:8a:ff:29:03:5f:
                    22:90:3e:7f:9b:e0:20:c1:ad:dc:ae:4c:39:1a:31:
                    96:17:02:8c:b2:d9:b4:0d:20:12:9b:7d:86:54:fd:
                    33:fd:c1:2a:62:46:f8:60:96:cf:6e:01:6f:22:df:
                    13:47:e7:97:ec:05:72:23:a3:62:f8:fa:ef:ac:9c:
                    72:f0:37:cb:2f:37:cf:90:a8:27:51:86:c6:d7:78:
                    08:8f:7e:25:a2:15:70:a2:fb:1c:b6:15:5e:a0:97:
                    8b:81:4c:09:28:8a:27:3b:94:bc:71:db:5b:71:37:
                    9a:2b:16:e0:6f:b5:c9:f5:4b:4f:20:ba:65:cf:af:
                    ad:ad
                Exponent: 65537 (0x10001)
        X509v3 extensions:
            X509v3 Key Usage: 
                Digital Signature, Key Encipherment
            X509v3 Basic Constraints: 
                CA:FALSE
            Netscape Cert Type: 
                SSL Server
            Netscape Comment: 
                OpenSSL Generated Server Certificate
            X509v3 Subject Key Identifier: 
                E5:25:6D:3E:AF:0D:DD:3F:4C:F2:45:19:39:D5:14:DB:7E:9C:C0:AD
            X509v3 Authority Key Identifier: 
                keyid:F4:A7:C0:CC:91:46:AF:64:F3:91:F2:27:F8:C8:B2:6F:8A:87:32:73
                DirName:/C=DE/ST=Hessen/O=privacyidea/CN=CA001
                serial:FB:C8:EB:AC:83:CD:12:07

            X509v3 Extended Key Usage: 
                TLS Web Server Authentication
    Signature Algorithm: sha256WithRSAEncryption
         1e:83:53:92:4a:07:5b:5e:eb:de:43:aa:0d:b8:08:ec:ac:9b:
         9a:7a:f0:6e:be:38:11:15:18:0c:2e:8f:aa:e5:1d:8a:9b:d4:
         54:7d:38:45:e2:3f:b8:d3:3a:49:f1:59:a9:ec:9f:38:50:c5:
         10:77:6b:f7:43:a7:95:1a:6f:4e:9a:f6:5d:f2:df:b6:4d:17:
         e3:fe:83:2b:85:b6:34:b3:18:bc:ac:49:37:ad:44:50:d6:db:
         ec:d2:42:b8:5f:7f:4a:43:ad:0f:eb:06:a7:dc:c8:46:98:0d:
         84:88:08:84:37:d4:7b:2c:da:9a:32:68:8d:ef:0a:a9:b6:b5:
         3a:00:8e:16:29:90:ba:1b:94:57:4b:c4:5d:9d:2d:51:10:6c:
         7c:29:96:3d:6f:0d:2e:51:41:d1:ed:56:ca:f9:17:e0:d8:85:
         08:62:d6:7d:b3:57:0f:50:da:43:e6:53:2f:65:c1:29:34:8a:
         5b:f8:ec:b0:99:73:0f:e9:cf:d8:64:2e:fd:a9:1f:1b:d0:9c:
         f6:03:63:59:66:39:c1:00:bd:75:f3:7d:76:c1:f3:26:07:52:
         9f:ad:fa:9e:0a:bf:65:fa:a4:8c:bc:73:f3:8a:59:2b:f3:09:
         0c:85:3d:7f:1c:e4:5a:de:1e:53:a7:90:7c:01:56:89:b9:0f:
         9d:f6:78:a5
-----BEGIN CERTIFICATE-----
MIIECTCCAvGgAwIBAgIEEAAA1TANBgkqhkiG9w0BAQsFADBEMQswCQYDVQQGEwJE
RTEPMA0GA1UECAwGSGVzc2VuMRQwEgYDVQQKDAtwcml2YWN5aWRlYTEOMAwGA1UE
AwwFQ0EwMDEwHhcNMTkwOTI1MDk0ODE5WhcNMjExMDE0MDk0ODE5WjA3MRMwEQYD
VQQDDApTdGV2ZSBUZXN0MSAwHgYJKoZIhvcNAQkBFhFzdGV2ZUBvcGVuc3NsLm9y
ZzCCASIwDQYJKoZIhvcNAQEBBQADggEPADCCAQoCggEBANKBiSBRSA9z9BEyJNUf
HP1c9bbmxfBSgdzSr2ZKfJMxYVyv0W0GcANgfHIMiN1JzZ4CbNJa11MP89q+aWS1
DwwA47NQR6Ozm7oTUNZYWkurOeARygonZwN4ImZtkh4bXEmu5mvRjjudBtPGrE1T
QxCr6JbBh4KXmY8g05kSNzGE4Yr/KQNfIpA+f5vgIMGt3K5MORoxlhcCjLLZtA0g
Ept9hlT9M/3BKmJG+GCWz24BbyLfE0fnl+wFciOjYvj676yccvA3yy83z5CoJ1GG
xtd4CI9+JaIVcKL7HLYVXqCXi4FMCSiKJzuUvHHbW3E3misW4G+1yfVLTyC6Zc+v
ra0CAwEAAaOCAQ4wggEKMAsGA1UdDwQEAwIFoDAJBgNVHRMEAjAAMBEGCWCGSAGG
+EIBAQQEAwIGQDAzBglghkgBhvhCAQ0EJhYkT3BlblNTTCBHZW5lcmF0ZWQgU2Vy
dmVyIENlcnRpZmljYXRlMB0GA1UdDgQWBBTlJW0+rw3dP0zyRRk51RTbfpzArTB0
BgNVHSMEbTBrgBT0p8DMkUavZPOR8if4yLJviocyc6FIpEYwRDELMAkGA1UEBhMC
REUxDzANBgNVBAgMBkhlc3NlbjEUMBIGA1UECgwLcHJpdmFjeWlkZWExDjAMBgNV
BAMMBUNBMDAxggkA+8jrrIPNEgcwEwYDVR0lBAwwCgYIKwYBBQUHAwEwDQYJKoZI
hvcNAQELBQADggEBAB6DU5JKB1te695Dqg24COysm5p68G6+OBEVGAwuj6rlHYqb
1FR9OEXiP7jTOknxWansnzhQxRB3a/dDp5Uab06a9l3y37ZNF+P+gyuFtjSzGLys
STetRFDW2+zSQrhff0pDrQ/rBqfcyEaYDYSICIQ31Hss2poyaI3vCqm2tToAjhYp
kLoblFdLxF2dLVEQbHwplj1vDS5RQdHtVsr5F+DYhQhi1n2zVw9Q2kPmUy9lwSk0
ilv47LCZcw/pz9hkLv2pHxvQnPYDY1lmOcEAvXXzfXbB8yYHUp+t+p4Kv2X6pIy8
c/OKWSvzCQyFPX8c5FreHlOnkHwBVom5D532eKU=
-----END CERTIFICATE-----
