Certificate:
    Data:
        Version: 3 (0x2)
        Serial Number: 268435689 (0x100000e9)
        Signature Algorithm: sha256WithRSAEncryption
        Issuer: C=DE, ST=Hessen, O=privacyidea, CN=CA001
        Validity
            Not Before: Aug 14 19:33:48 2019 GMT
            Not After : Aug 13 19:33:48 2020 GMT
        Subject: C=DE, ST=Hessen, O=privacyidea, CN=requester.localdomain
        Subject Public Key Info:
            Public Key Algorithm: rsaEncryption
                RSA Public-Key: (2048 bit)
                Modulus:
                    00:cd:be:14:4f:fa:ce:01:3f:42:22:1b:1d:9c:af:
                    dd:92:d2:7f:db:6c:b7:3e:39:43:43:6b:13:03:f1:
                    05:f4:07:74:bc:76:69:28:0b:af:19:8e:d7:fc:e3:
                    cd:c6:58:f2:ca:7f:08:6d:53:fc:07:02:44:24:c6:
                    b4:34:4c:8c:04:fe:33:0e:40:e2:20:ba:02:73:5a:
                    f7:f5:4f:63:6e:cc:c6:b6:df:54:1d:37:39:7d:51:
                    36:26:5f:bd:dc:3f:a8:8b:6b:a2:ae:b6:9d:d6:21:
                    e7:df:41:b8:7a:28:2a:68:48:ca:a8:2d:ed:e1:e9:
                    46:5e:5a:72:6d:b4:84:38:87:91:fd:94:11:0b:28:
                    84:c6:c2:2f:2a:fb:01:f9:36:7a:09:75:d1:33:88:
                    3c:73:41:5b:c8:bf:94:89:70:a1:f0:c0:b9:2e:50:
                    53:1e:b1:17:64:69:f4:2d:81:e0:a9:0d:0e:32:e9:
                    ba:55:8a:85:f1:1b:6f:49:79:b4:7f:88:c3:0d:3e:
                    54:88:9b:3d:1f:38:8c:04:f3:ee:6a:63:2b:f5:c6:
                    db:b4:83:aa:c4:78:41:3a:7d:4b:e1:c8:3e:71:ca:
                    1b:61:59:ea:c6:c4:ca:32:5e:c9:e9:bf:12:29:e6:
                    c6:c3:63:fe:a0:55:da:7a:f1:60:98:4d:26:ed:fa:
                    70:2d
                Exponent: 65537 (0x10001)
        X509v3 extensions:
            X509v3 Key Usage: 
                Digital Signature, Key Encipherment
            X509v3 Basic Constraints: 
                CA:FALSE
            Netscape Cert Type: 
                SSL Server
            Netscape Comment: 
                OpenSSL Generated Server Certificate
            X509v3 Subject Key Identifier: 
                53:3F:ED:5D:09:07:B3:65:7B:AB:45:C9:24:5B:09:77:80:0A:96:ED
            X509v3 Authority Key Identifier: 
                keyid:F4:A7:C0:CC:91:46:AF:64:F3:91:F2:27:F8:C8:B2:6F:8A:87:32:73
                DirName:/C=DE/ST=Hessen/O=privacyidea/CN=CA001
                serial:FB:C8:EB:AC:83:CD:12:07

            X509v3 Extended Key Usage: 
                TLS Web Server Authentication
    Signature Algorithm: sha256WithRSAEncryption
         5a:2a:d9:7e:1c:d8:d3:8d:d6:df:e5:4b:8b:6e:a2:cb:5a:7f:
         1e:97:e6:e2:ce:d7:f5:74:15:39:65:bc:ff:51:4c:0d:7f:c4:
         87:fa:f2:f7:c0:24:53:d5:b6:ad:cd:23:85:15:1c:41:ca:73:
         00:4c:95:64:7c:98:4f:4f:06:3b:33:a6:e1:33:90:bd:ff:f0:
         5a:3d:9b:20:91:a7:cf:73:76:81:81:f0:be:6a:c9:3d:87:8c:
         eb:8d:6c:2b:16:22:3a:72:9b:7f:7e:c5:3e:b9:33:67:8a:30:
         d2:65:6a:9d:2b:83:c1:60:bf:c9:d1:f1:0b:31:9d:04:c0:85:
         6b:43:fd:f3:72:57:3b:d6:07:6a:b3:4c:53:15:76:13:fd:c4:
         f2:67:d0:9f:af:28:60:1a:a2:52:3c:02:52:0f:bd:40:6d:1d:
         c2:3f:41:a9:7a:3f:a7:96:79:2c:bd:1c:a5:e0:29:06:23:9e:
         56:e1:94:e1:54:ea:4e:47:67:7f:4a:77:90:56:77:a1:be:5b:
         36:e3:56:d2:f4:cd:a6:e8:a4:89:18:14:7f:44:ba:68:28:81:
         65:05:43:f7:c8:66:79:7f:3e:cf:76:0a:fb:da:d5:de:60:73:
         ab:79:a4:a2:cd:d0:c1:2b:cf:eb:8d:71:b6:33:0f:a5:9a:a5:
         0f:03:4a:15
-----BEGIN CERTIFICATE-----
MIIEJjCCAw6gAwIBAgIEEAAA6TANBgkqhkiG9w0BAQsFADBEMQswCQYDVQQGEwJE
RTEPMA0GA1UECAwGSGVzc2VuMRQwEgYDVQQKDAtwcml2YWN5aWRlYTEOMAwGA1UE
AwwFQ0EwMDEwHhcNMTkwODE0MTkzMzQ4WhcNMjAwODEzMTkzMzQ4WjBUMQswCQYD
VQQGEwJERTEPMA0GA1UECAwGSGVzc2VuMRQwEgYDVQQKDAtwcml2YWN5aWRlYTEe
MBwGA1UEAwwVcmVxdWVzdGVyLmxvY2FsZG9tYWluMIIBIjANBgkqhkiG9w0BAQEF
AAOCAQ8AMIIBCgKCAQEAzb4UT/rOAT9CIhsdnK/dktJ/22y3PjlDQ2sTA/EF9Ad0
vHZpKAuvGY7X/OPNxljyyn8IbVP8BwJEJMa0NEyMBP4zDkDiILoCc1r39U9jbszG
tt9UHTc5fVE2Jl+93D+oi2uirrad1iHn30G4eigqaEjKqC3t4elGXlpybbSEOIeR
/ZQRCyiExsIvKvsB+TZ6CXXRM4g8c0FbyL+UiXCh8MC5LlBTHrEXZGn0LYHgqQ0O
Mum6VYqF8RtvSXm0f4jDDT5UiJs9HziMBPPuamMr9cbbtIOqxHhBOn1L4cg+ccob
YVnqxsTKMl7J6b8SKebGw2P+oFXaevFgmE0m7fpwLQIDAQABo4IBDjCCAQowCwYD
VR0PBAQDAgWgMAkGA1UdEwQCMAAwEQYJYIZIAYb4QgEBBAQDAgZAMDMGCWCGSAGG
+EIBDQQmFiRPcGVuU1NMIEdlbmVyYXRlZCBTZXJ2ZXIgQ2VydGlmaWNhdGUwHQYD
VR0OBBYEFFM/7V0JB7Nle6tFySRbCXeACpbtMHQGA1UdIwRtMGuAFPSnwMyRRq9k
85HyJ/jIsm+KhzJzoUikRjBEMQswCQYDVQQGEwJERTEPMA0GA1UECAwGSGVzc2Vu
MRQwEgYDVQQKDAtwcml2YWN5aWRlYTEOMAwGA1UEAwwFQ0EwMDGCCQD7yOusg80S
BzATBgNVHSUEDDAKBggrBgEFBQcDATANBgkqhkiG9w0BAQsFAAOCAQEAWirZfhzY
043W3+VLi26iy1p/Hpfm4s7X9XQVOWW8/1FMDX/Eh/ry98AkU9W2rc0jhRUcQcpz
AEyVZHyYT08GOzOm4TOQvf/wWj2bIJGnz3N2gYHwvmrJPYeM641sKxYiOnKbf37F
PrkzZ4ow0mVqnSuDwWC/ydHxCzGdBMCFa0P983JXO9YHarNMUxV2E/3E8mfQn68o
YBqiUjwCUg+9QG0dwj9BqXo/p5Z5LL0cpeApBiOeVuGU4VTqTkdnf0p3kFZ3ob5b
NuNW0vTNpuikiRgUf0S6aCiBZQVD98hmeX8+z3YK+9rV3mBzq3mkos3QwSvP641x
tjMPpZqlDwNKFQ==
-----END CERTIFICATE-----
