Certificate:
    Data:
        Version: 3 (0x2)
        Serial Number: 268435668 (0x100000d4)
        Signature Algorithm: sha256WithRSAEncryption
        Issuer: C=DE, ST=Hessen, O=privacyidea, CN=CA001
        Validity
            Not Before: Sep 25 09:48:19 2019 GMT
            Not After : Sep 24 09:48:19 2020 GMT
        Subject: CN=Steve Test/emailAddress=steve@openssl.org
        Subject Public Key Info:
            Public Key Algorithm: rsaEncryption
                RSA Public-Key: (2048 bit)
                Modulus:
                    00:d2:81:89:20:51:48:0f:73:f4:11:32:24:d5:1f:
                    1c:fd:5c:f5:b6:e6:c5:f0:52:81:dc:d2:af:66:4a:
                    7c:93:31:61:5c:af:d1:6d:06:70:03:60:7c:72:0c:
                    88:dd:49:cd:9e:02:6c:d2:5a:d7:53:0f:f3:da:be:
                    69:64:b5:0f:0c:00:e3:b3:50:47:a3:b3:9b:ba:13:
                    50:d6:58:5a:4b:ab:39:e0:11:ca:0a:27:67:03:78:
                    22:66:6d:92:1e:1b:5c:49:ae:e6:6b:d1:8e:3b:9d:
                    06:d3:c6:ac:4d:53:43:10:ab:e8:96:c1:87:82:97:
                    99:8f:20:d3:99:12:37:31:84:e1:8a:ff:29:03:5f:
                    22:90:3e:7f:9b:e0:20:c1:ad:dc:ae:4c:39:1a:31:
                    96:17:02:8c:b2:d9:b4:0d:20:12:9b:7d:86:54:fd:
                    33:fd:c1:2a:62:46:f8:60:96:cf:6e:01:6f:22:df:
                    13:47:e7:97:ec:05:72:23:a3:62:f8:fa:ef:ac:9c:
                    72:f0:37:cb:2f:37:cf:90:a8:27:51:86:c6:d7:78:
                    08:8f:7e:25:a2:15:70:a2:fb:1c:b6:15:5e:a0:97:
                    8b:81:4c:09:28:8a:27:3b:94:bc:71:db:5b:71:37:
                    9a:2b:16:e0:6f:b5:c9:f5:4b:4f:20:ba:65:cf:af:
                    ad:ad
                Exponent: 65537 (0x10001)
        X509v3 extensions:
            X509v3 Key Usage: 
                Digital Signature, Key Encipherment
            X509v3 Basic Constraints: 
                CA:FALSE
            Netscape Cert Type: 
                SSL Server
            Netscape Comment: 
                OpenSSL Generated Server Certificate
            X509v3 Subject Key Identifier: 
                E5:25:6D:3E:AF:0D:DD:3F:4C:F2:45:19:39:D5:14:DB:7E:9C:C0:AD
            X509v3 Authority Key Identifier: 
                keyid:F4:A7:C0:CC:91:46:AF:64:F3:91:F2:27:F8:C8:B2:6F:8A:87:32:73
                DirName:/C=DE/ST=Hessen/O=privacyidea/CN=CA001
                serial:FB:C8:EB:AC:83:CD:12:07

            X509v3 Extended Key Usage: 
                TLS Web Server Authentication
    Signature Algorithm: sha256WithRSAEncryption
         10:23:99:8a:94:b8:db:6e:45:30:28:3b:85:eb:df:8b:1a:79:
         8f:01:5e:bd:b5:47:cd:d6:f2:2d:43:f2:8c:a2:a1:0d:96:97:
         ea:12:ae:74:99:17:2b:6b:9a:55:2c:9e:f5:54:1c:da:14:ca:
         34:f5:81:c5:b1:49:d7:1d:9d:44:3b:31:2d:ef:ee:de:36:16:
         c9:dc:ad:8a:c7:c2:42:12:90:18:c9:d6:19:0f:9b:06:cb:bb:
         a6:b0:68:8f:1b:1d:2d:df:c4:88:d3:a8:b7:ee:42:09:20:6d:
         32:4d:cb:84:23:2c:ec:1e:8d:b4:41:4b:fb:35:db:60:ef:55:
         9c:9c:d1:5b:05:e9:40:a1:9f:b5:e3:27:bd:27:00:fb:f5:97:
         d4:8f:8d:8c:a9:3e:5a:d6:25:92:ea:a1:cf:61:5d:76:8b:70:
         21:13:6a:13:e7:93:17:91:a8:c8:d3:72:be:82:83:c8:09:0f:
         f8:f1:1c:90:d8:38:85:67:8e:cb:15:0c:35:6e:ea:b2:61:3f:
         d2:58:4c:ff:e9:5c:19:3b:9f:41:81:35:44:56:fa:15:66:72:
         eb:19:81:3d:67:3d:40:9e:0b:36:62:2a:64:9b:5a:0c:90:77:
         2a:0e:34:96:9f:d3:57:05:f5:01:95:ec:df:22:a7:ee:4c:f3:
         0b:e1:53:94
-----BEGIN CERTIFICATE-----
MIIECTCCAvGgAwIBAgIEEAAA1DANBgkqhkiG9w0BAQsFADBEMQswCQYDVQQGEwJE
RTEPMA0GA1UECAwGSGVzc2VuMRQwEgYDVQQKDAtwcml2YWN5aWRlYTEOMAwGA1UE
AwwFQ0EwMDEwHhcNMTkwOTI1MDk0ODE5WhcNMjAwOTI0MDk0ODE5WjA3MRMwEQYD
VQQDDApTdGV2ZSBUZXN0MSAwHgYJKoZIhvcNAQkBFhFzdGV2ZUBvcGVuc3NsLm9y
ZzCCASIwDQYJKoZIhvcNAQEBBQADggEPADCCAQoCggEBANKBiSBRSA9z9BEyJNUf
HP1c9bbmxfBSgdzSr2ZKfJMxYVyv0W0GcANgfHIMiN1JzZ4CbNJa11MP89q+aWS1
DwwA47NQR6Ozm7oTUNZYWkurOeARygonZwN4ImZtkh4bXEmu5mvRjjudBtPGrE1T
QxCr6JbBh4KXmY8g05kSNzGE4Yr/KQNfIpA+f5vgIMGt3K5MORoxlhcCjLLZtA0g
Ept9hlT9M/3BKmJG+GCWz24BbyLfE0fnl+wFciOjYvj676yccvA3yy83z5CoJ1GG
xtd4CI9+JaIVcKL7HLYVXqCXi4FMCSiKJzuUvHHbW3E3misW4G+1yfVLTyC6Zc+v
ra0CAwEAAaOCAQ4wggEKMAsGA1UdDwQEAwIFoDAJBgNVHRMEAjAAMBEGCWCGSAGG
+EIBAQQEAwIGQDAzBglghkgBhvhCAQ0EJhYkT3BlblNTTCBHZW5lcmF0ZWQgU2Vy
dmVyIENlcnRpZmljYXRlMB0GA1UdDgQWBBTlJW0+rw3dP0zyRRk51RTbfpzArTB0
BgNVHSMEbTBrgBT0p8DMkUavZPOR8if4yLJviocyc6FIpEYwRDELMAkGA1UEBhMC
REUxDzANBgNVBAgMBkhlc3NlbjEUMBIGA1UECgwLcHJpdmFjeWlkZWExDjAMBgNV
BAMMBUNBMDAxggkA+8jrrIPNEgcwEwYDVR0lBAwwCgYIKwYBBQUHAwEwDQYJKoZI
hvcNAQELBQADggEBABAjmYqUuNtuRTAoO4Xr34saeY8BXr21R83W8i1D8oyioQ2W
l+oSrnSZFytrmlUsnvVUHNoUyjT1gcWxSdcdnUQ7MS3v7t42FsncrYrHwkISkBjJ
1hkPmwbLu6awaI8bHS3fxIjTqLfuQgkgbTJNy4QjLOwejbRBS/s122DvVZyc0VsF
6UChn7XjJ70nAPv1l9SPjYypPlrWJZLqoc9hXXaLcCETahPnkxeRqMjTcr6Cg8gJ
D/jxHJDYOIVnjssVDDVu6rJhP9JYTP/pXBk7n0GBNURW+hVmcusZgT1nPUCeCzZi
KmSbWgyQdyoONJaf01cF9QGV7N8ip+5M8wvhU5Q=
-----END CERTIFICATE-----
