Certificate:
    Data:
        Version: 3 (0x2)
        Serial Number: 268435690 (0x100000ea)
        Signature Algorithm: sha256WithRSAEncryption
        Issuer: C=DE, ST=Hessen, O=privacyidea, CN=CA001
        Validity
            Not Before: Aug 14 19:39:13 2019 GMT
            Not After : Aug 13 19:39:13 2020 GMT
        Subject: C=DE, ST=Hessen, O=privacyidea, CN=requester.localdomain
        Subject Public Key Info:
            Public Key Algorithm: rsaEncryption
                RSA Public-Key: (2048 bit)
                Modulus:
                    00:cd:be:14:4f:fa:ce:01:3f:42:22:1b:1d:9c:af:
                    dd:92:d2:7f:db:6c:b7:3e:39:43:43:6b:13:03:f1:
                    05:f4:07:74:bc:76:69:28:0b:af:19:8e:d7:fc:e3:
                    cd:c6:58:f2:ca:7f:08:6d:53:fc:07:02:44:24:c6:
                    b4:34:4c:8c:04:fe:33:0e:40:e2:20:ba:02:73:5a:
                    f7:f5:4f:63:6e:cc:c6:b6:df:54:1d:37:39:7d:51:
                    36:26:5f:bd:dc:3f:a8:8b:6b:a2:ae:b6:9d:d6:21:
                    e7:df:41:b8:7a:28:2a:68:48:ca:a8:2d:ed:e1:e9:
                    46:5e:5a:72:6d:b4:84:38:87:91:fd:94:11:0b:28:
                    84:c6:c2:2f:2a:fb:01:f9:36:7a:09:75:d1:33:88:
                    3c:73:41:5b:c8:bf:94:89:70:a1:f0:c0:b9:2e:50:
                    53:1e:b1:17:64:69:f4:2d:81:e0:a9:0d:0e:32:e9:
                    ba:55:8a:85:f1:1b:6f:49:79:b4:7f:88:c3:0d:3e:
                    54:88:9b:3d:1f:38:8c:04:f3:ee:6a:63:2b:f5:c6:
                    db:b4:83:aa:c4:78:41:3a:7d:4b:e1:c8:3e:71:ca:
                    1b:61:59:ea:c6:c4:ca:32:5e:c9:e9:bf:12:29:e6:
                    c6:c3:63:fe:a0:55:da:7a:f1:60:98:4d:26:ed:fa:
                    70:2d
                Exponent: 65537 (0x10001)
        X509v3 extensions:
            X509v3 Key Usage: 
                Digital Signature, Key Encipherment
            X509v3 Basic Constraints: 
                CA:FALSE
            Netscape Cert Type: 
                SSL Server
            Netscape Comment: 
                OpenSSL Generated Server Certificate
            X509v3 Subject Key Identifier: 
                53:3F:ED:5D:09:07:B3:65:7B:AB:45:C9:24:5B:09:77:80:0A:96:ED
            X509v3 Authority Key Identifier: 
                keyid:F4:A7:C0:CC:91:46:AF:64:F3:91:F2:27:F8:C8:B2:6F:8A:87:32:73
                DirName:/C=DE/ST=Hessen/O=privacyidea/CN=CA001
                serial:FB:C8:EB:AC:83:CD:12:07

            X509v3 Extended Key Usage: 
                TLS Web Server Authentication
    Signature Algorithm: sha256WithRSAEncryption
         3d:3d:4d:9b:72:b9:5d:a1:d1:81:cb:80:a9:36:bf:0e:92:c1:
         89:09:73:35:f0:cc:d4:64:94:a4:2b:4f:3e:c3:26:78:bb:54:
         33:74:4a:d5:37:7c:e0:ec:ad:1a:ec:99:ca:21:33:c9:9a:5b:
         66:54:cd:72:08:77:e6:8e:46:c0:7b:e1:d7:6f:c6:37:b3:a2:
         dd:26:86:33:e6:71:e3:72:41:76:bb:6b:9c:5a:33:62:19:27:
         e3:c0:38:d9:bc:23:7c:1f:79:e4:72:c6:89:5a:a4:85:30:b8:
         df:df:61:06:fc:8c:c9:cd:de:95:6b:dd:20:8e:7d:37:af:b9:
         7a:14:1d:2a:66:fe:17:8f:3b:3b:b4:49:77:b2:62:f7:51:13:
         30:95:4f:d7:06:8e:a7:76:89:69:bb:4c:4f:f2:3b:85:49:04:
         15:39:df:75:fd:6f:cf:68:48:c8:1a:71:69:ae:80:ce:a5:f2:
         ee:04:33:c0:07:f9:5c:2b:d7:2d:ca:3c:0a:07:f4:df:02:e6:
         b6:81:1c:53:eb:d8:69:77:b8:12:20:b6:1a:4b:14:44:4f:52:
         cf:88:84:ca:eb:40:7f:56:6a:a3:7d:65:84:22:d2:7f:fe:db:
         57:3e:df:d1:a3:ad:ba:e9:30:53:02:18:46:bc:09:80:d1:16:
         7a:e2:71:9a
-----BEGIN CERTIFICATE-----
MIIEJjCCAw6gAwIBAgIEEAAA6jANBgkqhkiG9w0BAQsFADBEMQswCQYDVQQGEwJE
RTEPMA0GA1UECAwGSGVzc2VuMRQwEgYDVQQKDAtwcml2YWN5aWRlYTEOMAwGA1UE
AwwFQ0EwMDEwHhcNMTkwODE0MTkzOTEzWhcNMjAwODEzMTkzOTEzWjBUMQswCQYD
VQQGEwJERTEPMA0GA1UECAwGSGVzc2VuMRQwEgYDVQQKDAtwcml2YWN5aWRlYTEe
MBwGA1UEAwwVcmVxdWVzdGVyLmxvY2FsZG9tYWluMIIBIjANBgkqhkiG9w0BAQEF
AAOCAQ8AMIIBCgKCAQEAzb4UT/rOAT9CIhsdnK/dktJ/22y3PjlDQ2sTA/EF9Ad0
vHZpKAuvGY7X/OPNxljyyn8IbVP8BwJEJMa0NEyMBP4zDkDiILoCc1r39U9jbszG
tt9UHTc5fVE2Jl+93D+oi2uirrad1iHn30G4eigqaEjKqC3t4elGXlpybbSEOIeR
/ZQRCyiExsIvKvsB+TZ6CXXRM4g8c0FbyL+UiXCh8MC5LlBTHrEXZGn0LYHgqQ0O
Mum6VYqF8RtvSXm0f4jDDT5UiJs9HziMBPPuamMr9cbbtIOqxHhBOn1L4cg+ccob
YVnqxsTKMl7J6b8SKebGw2P+oFXaevFgmE0m7fpwLQIDAQABo4IBDjCCAQowCwYD
VR0PBAQDAgWgMAkGA1UdEwQCMAAwEQYJYIZIAYb4QgEBBAQDAgZAMDMGCWCGSAGG
+EIBDQQmFiRPcGVuU1NMIEdlbmVyYXRlZCBTZXJ2ZXIgQ2VydGlmaWNhdGUwHQYD
VR0OBBYEFFM/7V0JB7Nle6tFySRbCXeACpbtMHQGA1UdIwRtMGuAFPSnwMyRRq9k
85HyJ/jIsm+KhzJzoUikRjBEMQswCQYDVQQGEwJERTEPMA0GA1UECAwGSGVzc2Vu
MRQwEgYDVQQKDAtwcml2YWN5aWRlYTEOMAwGA1UEAwwFQ0EwMDGCCQD7yOusg80S
BzATBgNVHSUEDDAKBggrBgEFBQcDATANBgkqhkiG9w0BAQsFAAOCAQEAPT1Nm3K5
XaHRgcuAqTa/DpLBiQlzNfDM1GSUpCtPPsMmeLtUM3RK1Td84OytGuyZyiEzyZpb
ZlTNcgh35o5GwHvh12/GN7Oi3SaGM+Zx43JBdrtrnFozYhkn48A42bwjfB955HLG
iVqkhTC4399hBvyMyc3elWvdII59N6+5ehQdKmb+F487O7RJd7Ji91ETMJVP1waO
p3aJabtMT/I7hUkEFTnfdf1vz2hIyBpxaa6AzqXy7gQzwAf5XCvXLco8Cgf03wLm
toEcU+vYaXe4EiC2GksURE9Sz4iEyutAf1Zqo31lhCLSf/7bVz7f0aOtuukwUwIY
RrwJgNEWeuJxmg==
-----END CERTIFICATE-----
