Certificate:
    Data:
        Version: 3 (0x2)
        Serial Number: 268435666 (0x100000d2)
        Signature Algorithm: sha256WithRSAEncryption
        Issuer: C=DE, ST=Hessen, O=privacyidea, CN=CA001
        Validity
            Not Before: Sep 25 09:48:19 2019 GMT
            Not After : Sep 24 09:48:19 2020 GMT
        Subject: C=DE, ST=Hessen, O=privacyidea, CN=requester.localdomain
        Subject Public Key Info:
            Public Key Algorithm: rsaEncryption
                RSA Public-Key: (2048 bit)
                Modulus:
                    00:cd:be:14:4f:fa:ce:01:3f:42:22:1b:1d:9c:af:
                    dd:92:d2:7f:db:6c:b7:3e:39:43:43:6b:13:03:f1:
                    05:f4:07:74:bc:76:69:28:0b:af:19:8e:d7:fc:e3:
                    cd:c6:58:f2:ca:7f:08:6d:53:fc:07:02:44:24:c6:
                    b4:34:4c:8c:04:fe:33:0e:40:e2:20:ba:02:73:5a:
                    f7:f5:4f:63:6e:cc:c6:b6:df:54:1d:37:39:7d:51:
                    36:26:5f:bd:dc:3f:a8:8b:6b:a2:ae:b6:9d:d6:21:
                    e7:df:41:b8:7a:28:2a:68:48:ca:a8:2d:ed:e1:e9:
                    46:5e:5a:72:6d:b4:84:38:87:91:fd:94:11:0b:28:
                    84:c6:c2:2f:2a:fb:01:f9:36:7a:09:75:d1:33:88:
                    3c:73:41:5b:c8:bf:94:89:70:a1:f0:c0:b9:2e:50:
                    53:1e:b1:17:64:69:f4:2d:81:e0:a9:0d:0e:32:e9:
                    ba:55:8a:85:f1:1b:6f:49:79:b4:7f:88:c3:0d:3e:
                    54:88:9b:3d:1f:38:8c:04:f3:ee:6a:63:2b:f5:c6:
                    db:b4:83:aa:c4:78:41:3a:7d:4b:e1:c8:3e:71:ca:
                    1b:61:59:ea:c6:c4:ca:32:5e:c9:e9:bf:12:29:e6:
                    c6:c3:63:fe:a0:55:da:7a:f1:60:98:4d:26:ed:fa:
                    70:2d
                Exponent: 65537 (0x10001)
        X509v3 extensions:
            X509v3 Key Usage: 
                Digital Signature, Key Encipherment
            X509v3 Basic Constraints: 
                CA:FALSE
            Netscape Cert Type: 
                SSL Server
            Netscape Comment: 
                OpenSSL Generated Server Certificate
            X509v3 Subject Key Identifier: 
                53:3F:ED:5D:09:07:B3:65:7B:AB:45:C9:24:5B:09:77:80:0A:96:ED
            X509v3 Authority Key Identifier: 
                keyid:F4:A7:C0:CC:91:46:AF:64:F3:91:F2:27:F8:C8:B2:6F:8A:87:32:73
                DirName:/C=DE/ST=Hessen/O=privacyidea/CN=CA001
                serial:FB:C8:EB:AC:83:CD:12:07

            X509v3 Extended Key Usage: 
                TLS Web Server Authentication
    Signature Algorithm: sha256WithRSAEncryption
         09:4a:d7:3b:2a:58:fa:41:c3:04:ac:b1:6a:49:d7:4d:0a:33:
         0d:7f:a1:da:a9:ea:8d:d8:0b:45:20:f5:bd:32:a4:c6:29:8a:
         f0:a9:94:5f:0a:db:28:66:87:a5:e3:35:01:b9:48:87:b1:b9:
         6a:b7:f4:f0:ac:af:77:86:98:1b:ea:7f:4d:93:9b:2b:cb:cf:
         3b:54:e4:0d:cf:9c:31:87:7c:cf:86:39:f6:ac:02:25:df:0f:
         94:5e:69:b2:83:d3:12:39:5f:9f:4d:90:24:63:b6:d9:fa:83:
         18:ce:35:a5:23:4a:2e:36:98:7c:6a:8f:bd:81:dd:ce:15:a9:
         64:67:97:1c:35:2d:c9:79:e3:9c:9f:21:ec:dc:bb:53:e0:c2:
         0c:fe:55:a2:28:f5:c5:17:8c:40:06:a0:07:ef:e9:66:9a:d6:
         df:47:77:44:3c:e7:61:e4:4c:2c:0a:80:08:98:86:ec:43:a1:
         fb:54:3f:0f:76:bf:ba:33:7b:4d:18:bf:a5:02:3b:be:77:ad:
         fa:54:78:a2:bd:da:29:12:9d:0d:63:a2:78:a4:67:31:f7:d2:
         73:23:7e:3a:fe:a6:a3:70:55:aa:22:ab:1d:67:71:32:7d:fe:
         c2:d7:cf:4d:47:84:c7:1a:1d:c1:33:62:b4:c6:c4:61:47:3d:
         13:1f:d2:1e
-----BEGIN CERTIFICATE-----
MIIEJjCCAw6gAwIBAgIEEAAA0jANBgkqhkiG9w0BAQsFADBEMQswCQYDVQQGEwJE
RTEPMA0GA1UECAwGSGVzc2VuMRQwEgYDVQQKDAtwcml2YWN5aWRlYTEOMAwGA1UE
AwwFQ0EwMDEwHhcNMTkwOTI1MDk0ODE5WhcNMjAwOTI0MDk0ODE5WjBUMQswCQYD
VQQGEwJERTEPMA0GA1UECAwGSGVzc2VuMRQwEgYDVQQKDAtwcml2YWN5aWRlYTEe
MBwGA1UEAwwVcmVxdWVzdGVyLmxvY2FsZG9tYWluMIIBIjANBgkqhkiG9w0BAQEF
AAOCAQ8AMIIBCgKCAQEAzb4UT/rOAT9CIhsdnK/dktJ/22y3PjlDQ2sTA/EF9Ad0
vHZpKAuvGY7X/OPNxljyyn8IbVP8BwJEJMa0NEyMBP4zDkDiILoCc1r39U9jbszG
tt9UHTc5fVE2Jl+93D+oi2uirrad1iHn30G4eigqaEjKqC3t4elGXlpybbSEOIeR
/ZQRCyiExsIvKvsB+TZ6CXXRM4g8c0FbyL+UiXCh8MC5LlBTHrEXZGn0LYHgqQ0O
Mum6VYqF8RtvSXm0f4jDDT5UiJs9HziMBPPuamMr9cbbtIOqxHhBOn1L4cg+ccob
YVnqxsTKMl7J6b8SKebGw2P+oFXaevFgmE0m7fpwLQIDAQABo4IBDjCCAQowCwYD
VR0PBAQDAgWgMAkGA1UdEwQCMAAwEQYJYIZIAYb4QgEBBAQDAgZAMDMGCWCGSAGG
+EIBDQQmFiRPcGVuU1NMIEdlbmVyYXRlZCBTZXJ2ZXIgQ2VydGlmaWNhdGUwHQYD
VR0OBBYEFFM/7V0JB7Nle6tFySRbCXeACpbtMHQGA1UdIwRtMGuAFPSnwMyRRq9k
85HyJ/jIsm+KhzJzoUikRjBEMQswCQYDVQQGEwJERTEPMA0GA1UECAwGSGVzc2Vu
MRQwEgYDVQQKDAtwcml2YWN5aWRlYTEOMAwGA1UEAwwFQ0EwMDGCCQD7yOusg80S
BzATBgNVHSUEDDAKBggrBgEFBQcDATANBgkqhkiG9w0BAQsFAAOCAQEACUrXOypY
+kHDBKyxaknXTQozDX+h2qnqjdgLRSD1vTKkximK8KmUXwrbKGaHpeM1AblIh7G5
arf08Kyvd4aYG+p/TZObK8vPO1TkDc+cMYd8z4Y59qwCJd8PlF5psoPTEjlfn02Q
JGO22fqDGM41pSNKLjaYfGqPvYHdzhWpZGeXHDUtyXnjnJ8h7Ny7U+DCDP5Voij1
xReMQAagB+/pZprW30d3RDznYeRMLAqACJiG7EOh+1Q/D3a/ujN7TRi/pQI7vnet
+lR4or3aKRKdDWOieKRnMffScyN+Ov6mo3BVqiKrHWdxMn3+wtfPTUeExxodwTNi
tMbEYUc9Ex/SHg==
-----END CERTIFICATE-----
