Certificate:
    Data:
        Version: 3 (0x2)
        Serial Number: 268435673 (0x100000d9)
        Signature Algorithm: sha256WithRSAEncryption
        Issuer: C=DE, ST=Hessen, O=privacyidea, CN=CA001
        Validity
            Not Before: Sep 25 05:21:01 2019 GMT
            Not After : Sep 24 05:21:01 2020 GMT
        Subject: OU=realm1, CN=cornelius/emailAddress=user@localhost.localdomain
        Subject Public Key Info:
            Public Key Algorithm: rsaEncryption
                RSA Public-Key: (2048 bit)
                Modulus:
                    00:b3:5e:1a:65:18:15:79:30:70:6e:75:e0:01:43:
                    c9:d2:c6:af:c1:95:41:1b:1b:1c:07:c7:f8:20:e6:
                    ca:1f:ad:f2:3e:a8:8c:a3:d4:86:ba:d7:f0:5f:32:
                    86:b7:ae:83:61:be:a1:d7:08:96:5a:73:b0:71:fa:
                    6b:46:e6:16:37:91:1a:cc:5e:d5:fe:bb:6e:94:52:
                    5a:66:43:b9:a7:c1:3d:90:80:25:66:dd:d7:99:7d:
                    91:09:bf:61:14:cc:5d:72:34:67:0a:12:64:a4:11:
                    24:1d:6b:e9:1a:02:09:7f:f8:54:df:54:fd:57:d2:
                    8f:a1:af:62:6e:86:5d:a2:96:11:45:d3:b2:be:ff:
                    57:c2:12:a7:6d:3a:a8:71:fa:98:fd:6b:12:2c:c4:
                    be:99:85:01:a7:c0:c0:0b:64:27:af:cc:2b:d6:da:
                    64:b0:13:d9:36:d8:b5:6c:f2:7b:99:d7:9e:af:f4:
                    cf:55:74:77:c8:a0:6c:20:54:03:34:79:a1:3c:73:
                    1e:e9:39:25:f5:b9:76:66:8a:a4:d8:c2:88:89:6e:
                    fe:da:11:1d:38:fd:3e:1f:5d:99:32:41:fc:36:d9:
                    82:65:6d:a8:44:98:af:28:a7:51:0b:44:9a:9a:70:
                    48:02:8e:c0:a4:bb:6e:d2:c8:54:59:73:5b:ec:00:
                    5b:1f
                Exponent: 65537 (0x10001)
        X509v3 extensions:
            X509v3 Key Usage: 
                Digital Signature, Key Encipherment
            X509v3 Basic Constraints: 
                CA:FALSE
            Netscape Cert Type: 
                SSL Server
            Netscape Comment: 
                OpenSSL Generated Server Certificate
            X509v3 Subject Key Identifier: 
                AC:AD:69:22:0D:1A:79:76:F0:EA:2A:AB:1A:3A:8E:1F:90:2C:E6:5D
            X509v3 Authority Key Identifier: 
                keyid:F4:A7:C0:CC:91:46:AF:64:F3:91:F2:27:F8:C8:B2:6F:8A:87:32:73
                DirName:/C=DE/ST=Hessen/O=privacyidea/CN=CA001
                serial:FB:C8:EB:AC:83:CD:12:07

            X509v3 Extended Key Usage: 
                TLS Web Server Authentication
    Signature Algorithm: sha256WithRSAEncryption
         bc:84:9a:36:08:26:f8:23:1b:52:97:2f:82:88:92:5a:b8:29:
         1c:b0:83:42:99:37:e4:9b:8e:9f:7b:15:0a:b6:ac:a6:42:3d:
         28:42:be:95:de:bf:f6:73:76:0e:25:ec:11:a8:c3:5a:d5:3f:
         03:64:63:f7:55:36:c0:ee:6c:00:5e:77:a3:79:a0:1a:e3:e1:
         5c:b7:5f:66:9d:a0:e8:1b:07:ef:24:d0:1e:ce:42:7f:18:31:
         eb:b9:01:3a:00:72:11:8b:88:af:c6:e8:5e:43:2f:a7:01:c4:
         66:1b:72:7c:79:3d:4b:e3:71:cd:3d:90:87:14:00:5e:60:03:
         af:22:11:60:dc:e1:25:d1:44:1f:ca:d2:8e:92:52:ca:21:bd:
         9b:66:20:91:d4:a9:51:b2:cb:81:f1:13:f9:2e:1a:74:b3:27:
         32:7c:5f:b2:9d:8b:ed:c5:fb:b0:05:20:ea:1f:86:30:c0:7a:
         ff:e5:51:1c:79:c7:f8:63:c2:9d:2d:58:3f:e7:dc:e5:c7:6c:
         15:a8:7a:a8:36:2b:d5:ff:ab:8a:61:cb:00:98:87:ea:28:01:
         7a:f9:05:cc:1e:f3:2d:08:f6:1d:b5:df:78:91:ef:85:b3:3d:
         a1:6d:55:a6:92:2c:31:0d:59:00:25:82:fe:da:ff:9a:77:a5:
         48:92:3e:79
-----BEGIN CERTIFICATE-----
MIIEIjCCAwqgAwIBAgIEEAAA2TANBgkqhkiG9w0BAQsFADBEMQswCQYDVQQGEwJE
RTEPMA0GA1UECAwGSGVzc2VuMRQwEgYDVQQKDAtwcml2YWN5aWRlYTEOMAwGA1UE
AwwFQ0EwMDEwHhcNMTkwOTI1MDUyMTAxWhcNMjAwOTI0MDUyMTAxWjBQMQ8wDQYD
VQQLDAZyZWFsbTExEjAQBgNVBAMMCWNvcm5lbGl1czEpMCcGCSqGSIb3DQEJARYa
dXNlckBsb2NhbGhvc3QubG9jYWxkb21haW4wggEiMA0GCSqGSIb3DQEBAQUAA4IB
DwAwggEKAoIBAQCzXhplGBV5MHBudeABQ8nSxq/BlUEbGxwHx/gg5sofrfI+qIyj
1Ia61/BfMoa3roNhvqHXCJZac7Bx+mtG5hY3kRrMXtX+u26UUlpmQ7mnwT2QgCVm
3deZfZEJv2EUzF1yNGcKEmSkESQda+kaAgl/+FTfVP1X0o+hr2Juhl2ilhFF07K+
/1fCEqdtOqhx+pj9axIsxL6ZhQGnwMALZCevzCvW2mSwE9k22LVs8nuZ156v9M9V
dHfIoGwgVAM0eaE8cx7pOSX1uXZmiqTYwoiJbv7aER04/T4fXZkyQfw22YJlbahE
mK8op1ELRJqacEgCjsCku27SyFRZc1vsAFsfAgMBAAGjggEOMIIBCjALBgNVHQ8E
BAMCBaAwCQYDVR0TBAIwADARBglghkgBhvhCAQEEBAMCBkAwMwYJYIZIAYb4QgEN
BCYWJE9wZW5TU0wgR2VuZXJhdGVkIFNlcnZlciBDZXJ0aWZpY2F0ZTAdBgNVHQ4E
FgQUrK1pIg0aeXbw6iqrGjqOH5As5l0wdAYDVR0jBG0wa4AU9KfAzJFGr2TzkfIn
+Miyb4qHMnOhSKRGMEQxCzAJBgNVBAYTAkRFMQ8wDQYDVQQIDAZIZXNzZW4xFDAS
BgNVBAoMC3ByaXZhY3lpZGVhMQ4wDAYDVQQDDAVDQTAwMYIJAPvI66yDzRIHMBMG
A1UdJQQMMAoGCCsGAQUFBwMBMA0GCSqGSIb3DQEBCwUAA4IBAQC8hJo2CCb4IxtS
ly+CiJJauCkcsINCmTfkm46fexUKtqymQj0oQr6V3r/2c3YOJewRqMNa1T8DZGP3
VTbA7mwAXnejeaAa4+Fct19mnaDoGwfvJNAezkJ/GDHruQE6AHIRi4ivxuheQy+n
AcRmG3J8eT1L43HNPZCHFABeYAOvIhFg3OEl0UQfytKOklLKIb2bZiCR1KlRssuB
8RP5Lhp0sycyfF+ynYvtxfuwBSDqH4YwwHr/5VEcecf4Y8KdLVg/59zlx2wVqHqo
NivV/6uKYcsAmIfqKAF6+QXMHvMtCPYdtd94ke+Fsz2hbVWmkiwxDVkAJYL+2v+a
d6VIkj55
-----END CERTIFICATE-----
