Certificate:
    Data:
        Version: 3 (0x2)
        Serial Number: 268435688 (0x100000e8)
        Signature Algorithm: sha256WithRSAEncryption
        Issuer: C=DE, ST=Hessen, O=privacyidea, CN=CA001
        Validity
            Not Before: Sep 25 06:02:01 2019 GMT
            Not After : Sep 24 06:02:01 2020 GMT
        Subject: CN=selfservice,CN=user,O=realm1/emailAddress=meine
        Subject Public Key Info:
            Public Key Algorithm: rsaEncryption
                RSA Public-Key: (2048 bit)
                Modulus:
                    00:cf:3c:d4:33:0e:12:c4:e6:da:cd:b6:56:a1:1c:
                    26:bb:26:1c:8a:4a:73:a8:58:8a:b6:1e:b3:8b:99:
                    d2:1d:07:c2:92:89:79:c0:69:d8:c8:df:28:61:98:
                    1e:b3:fe:ae:2b:bd:78:a9:f7:6e:47:dc:a3:a0:16:
                    8c:85:02:c1:4e:92:fd:72:6e:f0:c8:03:29:9b:b8:
                    00:6e:c0:83:95:c8:34:20:36:9c:b3:e5:e4:e6:76:
                    73:a3:1a:ad:40:96:e0:53:54:00:ec:76:79:9a:c6:
                    0d:7e:b6:bd:29:ec:83:f3:cb:89:a4:cb:6c:00:ba:
                    0c:c5:78:0f:ff:69:b8:94:f4:04:70:43:3f:d8:9e:
                    d7:a7:fb:5d:ce:75:8e:da:e7:c4:07:b1:9d:de:6f:
                    88:4b:b6:4d:9a:cf:f9:bc:fa:9f:cd:32:6d:f6:3a:
                    0b:0d:23:42:78:ec:97:42:bf:0e:4d:60:56:e1:d3:
                    02:f2:19:cb:84:57:90:e5:70:a1:a2:83:35:86:e2:
                    da:86:9f:f9:8a:c4:79:b3:52:28:da:cb:bb:34:ca:
                    d3:da:91:4a:cf:8d:76:a2:b2:6b:9b:f9:96:fd:09:
                    2a:da:11:23:4d:f0:cb:d6:b2:b1:0e:12:6c:9a:19:
                    65:98:87:ca:e4:ee:24:ce:44:ac:90:8f:9d:1b:c5:
                    2a:9d
                Exponent: 65537 (0x10001)
        X509v3 extensions:
            X509v3 Key Usage: 
                Digital Signature, Key Encipherment
            X509v3 Basic Constraints: 
                CA:FALSE
            Netscape Cert Type: 
                SSL Server
            Netscape Comment: 
                OpenSSL Generated Server Certificate
            X509v3 Subject Key Identifier: 
                4D:07:90:AD:FF:1D:0D:E7:1A:DD:D6:2E:FA:BA:34:CB:AA:1F:24:C6
            X509v3 Authority Key Identifier: 
                keyid:F4:A7:C0:CC:91:46:AF:64:F3:91:F2:27:F8:C8:B2:6F:8A:87:32:73
                DirName:/C=DE/ST=Hessen/O=privacyidea/CN=CA001
                serial:FB:C8:EB:AC:83:CD:12:07

            X509v3 Extended Key Usage: 
                TLS Web Server Authentication
    Signature Algorithm: sha256WithRSAEncryption
         2b:bb:e8:4a:29:2d:b8:43:66:7b:af:f3:ca:fa:3e:50:e5:9c:
         cd:8c:f7:9f:5f:09:b6:ed:fe:4a:12:84:0d:f5:59:e5:ce:89:
         85:b5:5b:26:f5:28:25:0e:c1:59:3b:40:18:8b:1a:6c:63:fb:
         a3:94:5c:4a:49:61:18:6d:7d:78:b6:33:77:c7:fb:4b:a0:a4:
         eb:9e:79:55:11:98:a0:56:60:50:fb:20:62:19:ff:82:a8:e1:
         20:49:25:45:6c:4e:55:5e:46:89:a5:8b:0f:de:b7:37:77:63:
         e2:1d:36:66:d5:26:35:e7:30:a0:87:13:f2:08:bd:da:ad:cc:
         fa:3b:09:d6:45:5b:3f:0c:a6:14:6c:ba:1f:0c:f6:4a:b4:57:
         90:14:af:69:64:5a:90:89:75:ca:76:4c:dd:21:e0:69:c2:c6:
         de:4e:a3:d8:cd:17:48:8c:2a:b7:a7:ad:5c:87:f8:bd:81:ab:
         3d:97:ef:bb:27:5f:d7:7d:87:59:90:59:03:ef:be:59:d1:23:
         32:20:6e:7f:45:1d:3e:14:0d:61:fb:0c:c1:12:52:07:eb:9c:
         8f:71:a4:43:48:d6:db:14:b5:f7:85:c4:03:fe:d9:a6:4d:14:
         27:3d:f4:8b:79:0a:a6:23:4e:65:a6:38:84:45:d9:f3:57:86:
         5b:43:a6:ac
-----BEGIN CERTIFICATE-----
MIIEDzCCAvegAwIBAgIEEAAA6DANBgkqhkiG9w0BAQsFADBEMQswCQYDVQQGEwJE
RTEPMA0GA1UECAwGSGVzc2VuMRQwEgYDVQQKDAtwcml2YWN5aWRlYTEOMAwGA1UE
AwwFQ0EwMDEwHhcNMTkwOTI1MDYwMjAxWhcNMjAwOTI0MDYwMjAxWjA9MSUwIwYD
VQQDDBxzZWxmc2VydmljZSxDTj11c2VyLE89cmVhbG0xMRQwEgYJKoZIhvcNAQkB
FgVtZWluZTCCASIwDQYJKoZIhvcNAQEBBQADggEPADCCAQoCggEBAM881DMOEsTm
2s22VqEcJrsmHIpKc6hYirYes4uZ0h0HwpKJecBp2MjfKGGYHrP+riu9eKn3bkfc
o6AWjIUCwU6S/XJu8MgDKZu4AG7Ag5XINCA2nLPl5OZ2c6MarUCW4FNUAOx2eZrG
DX62vSnsg/PLiaTLbAC6DMV4D/9puJT0BHBDP9ie16f7Xc51jtrnxAexnd5viEu2
TZrP+bz6n80ybfY6Cw0jQnjsl0K/Dk1gVuHTAvIZy4RXkOVwoaKDNYbi2oaf+YrE
ebNSKNrLuzTK09qRSs+NdqKya5v5lv0JKtoRI03wy9aysQ4SbJoZZZiHyuTuJM5E
rJCPnRvFKp0CAwEAAaOCAQ4wggEKMAsGA1UdDwQEAwIFoDAJBgNVHRMEAjAAMBEG
CWCGSAGG+EIBAQQEAwIGQDAzBglghkgBhvhCAQ0EJhYkT3BlblNTTCBHZW5lcmF0
ZWQgU2VydmVyIENlcnRpZmljYXRlMB0GA1UdDgQWBBRNB5Ct/x0N5xrd1i76ujTL
qh8kxjB0BgNVHSMEbTBrgBT0p8DMkUavZPOR8if4yLJviocyc6FIpEYwRDELMAkG
A1UEBhMCREUxDzANBgNVBAgMBkhlc3NlbjEUMBIGA1UECgwLcHJpdmFjeWlkZWEx
DjAMBgNVBAMMBUNBMDAxggkA+8jrrIPNEgcwEwYDVR0lBAwwCgYIKwYBBQUHAwEw
DQYJKoZIhvcNAQELBQADggEBACu76EopLbhDZnuv88r6PlDlnM2M959fCbbt/koS
hA31WeXOiYW1Wyb1KCUOwVk7QBiLGmxj+6OUXEpJYRhtfXi2M3fH+0ugpOueeVUR
mKBWYFD7IGIZ/4Ko4SBJJUVsTlVeRomliw/etzd3Y+IdNmbVJjXnMKCHE/IIvdqt
zPo7CdZFWz8MphRsuh8M9kq0V5AUr2lkWpCJdcp2TN0h4GnCxt5Oo9jNF0iMKren
rVyH+L2Bqz2X77snX9d9h1mQWQPvvlnRIzIgbn9FHT4UDWH7DMESUgfrnI9xpENI
1tsUtfeFxAP+2aZNFCc99It5CqYjTmWmOIRF2fNXhltDpqw=
-----END CERTIFICATE-----
