Certificate:
    Data:
        Version: 3 (0x2)
        Serial Number: 268435692 (0x100000ec)
        Signature Algorithm: sha256WithRSAEncryption
        Issuer: C=DE, ST=Hessen, O=privacyidea, CN=CA001
        Validity
            Not Before: Aug 14 19:40:39 2019 GMT
            Not After : Aug 13 19:40:39 2020 GMT
        Subject: C=DE, ST=Hessen, O=privacyidea, CN=usercert
        Subject Public Key Info:
            Public Key Algorithm: rsaEncryption
                RSA Public-Key: (2048 bit)
                Modulus:
                    00:dc:2f:d1:5f:29:97:d4:7c:c3:53:c8:30:bd:4b:
                    67:70:2c:24:6b:b8:5e:eb:21:7a:48:12:56:7c:81:
                    5c:48:75:b6:68:eb:f6:f2:98:4e:50:51:d1:7f:6c:
                    73:f3:0a:a7:ae:be:48:5e:e5:d6:e1:d9:2a:7c:32:
                    6e:4e:fd:08:f6:5a:54:49:23:73:c3:b9:07:18:d1:
                    ef:b3:ac:f8:8a:dc:94:96:a4:90:3a:8e:74:df:e6:
                    0d:37:1b:bd:5b:b7:25:1a:56:39:da:6f:91:aa:5e:
                    1c:74:f3:f9:7c:14:01:83:12:65:76:c7:bb:fe:36:
                    5b:95:e9:72:65:83:ed:3e:98:30:71:fa:87:dd:a3:
                    36:5a:30:03:2e:26:e0:61:d1:bf:02:3f:b6:06:1f:
                    4a:89:28:1c:5c:a2:ff:4e:be:94:e6:8c:e0:da:82:
                    f1:9d:29:32:48:30:73:b4:04:f6:42:1e:be:f7:e2:
                    32:32:27:3c:9d:89:2f:70:3e:85:9a:6f:5c:c5:09:
                    c0:8c:32:2f:72:22:c9:d2:95:1f:b6:ac:72:60:72:
                    b7:82:4d:6b:ce:5b:e3:00:d0:d2:2f:58:c6:e0:10:
                    e5:51:ca:4d:3b:2e:e6:7e:ab:84:d6:56:f1:93:35:
                    a0:93:64:26:81:75:2f:91:b5:16:06:38:0b:db:cc:
                    2d:07
                Exponent: 65537 (0x10001)
        X509v3 extensions:
            X509v3 Key Usage: 
                Digital Signature, Key Encipherment
            X509v3 Basic Constraints: 
                CA:FALSE
            Netscape Cert Type: 
                SSL Server
            Netscape Comment: 
                OpenSSL Generated Server Certificate
            X509v3 Subject Key Identifier: 
                FC:14:D1:F0:4B:8D:00:90:F2:F5:B8:71:9E:4E:97:C3:92:54:AD:0B
            X509v3 Authority Key Identifier: 
                keyid:F4:A7:C0:CC:91:46:AF:64:F3:91:F2:27:F8:C8:B2:6F:8A:87:32:73
                DirName:/C=DE/ST=Hessen/O=privacyidea/CN=CA001
                serial:FB:C8:EB:AC:83:CD:12:07

            X509v3 Extended Key Usage: 
                TLS Web Server Authentication
    Signature Algorithm: sha256WithRSAEncryption
         21:af:2c:8a:cc:5e:64:a2:64:61:27:41:c2:d9:be:de:de:a6:
         e0:78:88:8e:6e:47:ee:cf:0a:f5:b8:81:be:a4:f6:16:b7:d8:
         e4:1f:6f:b8:ef:8b:28:31:5f:c5:5f:27:85:71:4f:c9:ac:46:
         35:4d:49:75:cb:d0:4c:7d:53:7f:7b:29:29:eb:24:9b:75:a1:
         63:bd:e7:6c:52:12:ca:6d:18:99:7e:a3:78:11:2e:ba:be:9b:
         b8:83:d4:d0:01:87:0d:89:3c:8f:c4:19:3b:d9:ac:6d:f2:1d:
         e8:d2:3d:57:38:d8:2d:55:eb:86:0c:44:51:5a:59:d5:0a:6e:
         09:b3:ea:3a:44:80:ea:48:7f:af:21:4c:1f:97:fc:68:fe:6a:
         d5:b4:36:b6:89:5a:5f:e6:53:cc:77:59:4f:04:2e:f2:61:0a:
         d7:03:06:60:dd:1f:9d:f6:15:38:11:fe:da:f7:a8:1c:5b:05:
         f7:8a:6d:3e:a4:a8:49:9f:00:05:c5:44:4d:93:4d:75:73:a0:
         4d:25:c9:39:16:b1:b1:46:0e:16:92:aa:8d:96:39:c9:0f:8b:
         ec:33:ba:42:47:82:99:e7:13:e3:c0:5c:0f:1b:fa:86:27:4a:
         20:01:86:84:03:08:a9:a1:4c:ab:11:58:b2:21:e9:80:92:7a:
         d8:d4:30:10
-----BEGIN CERTIFICATE-----
MIIEGTCCAwGgAwIBAgIEEAAA7DANBgkqhkiG9w0BAQsFADBEMQswCQYDVQQGEwJE
RTEPMA0GA1UECAwGSGVzc2VuMRQwEgYDVQQKDAtwcml2YWN5aWRlYTEOMAwGA1UE
AwwFQ0EwMDEwHhcNMTkwODE0MTk0MDM5WhcNMjAwODEzMTk0MDM5WjBHMQswCQYD
VQQGEwJERTEPMA0GA1UECAwGSGVzc2VuMRQwEgYDVQQKDAtwcml2YWN5aWRlYTER
MA8GA1UEAwwIdXNlcmNlcnQwggEiMA0GCSqGSIb3DQEBAQUAA4IBDwAwggEKAoIB
AQDcL9FfKZfUfMNTyDC9S2dwLCRruF7rIXpIElZ8gVxIdbZo6/bymE5QUdF/bHPz
Cqeuvkhe5dbh2Sp8Mm5O/Qj2WlRJI3PDuQcY0e+zrPiK3JSWpJA6jnTf5g03G71b
tyUaVjnab5GqXhx08/l8FAGDEmV2x7v+NluV6XJlg+0+mDBx+ofdozZaMAMuJuBh
0b8CP7YGH0qJKBxcov9OvpTmjODagvGdKTJIMHO0BPZCHr734jIyJzydiS9wPoWa
b1zFCcCMMi9yIsnSlR+2rHJgcreCTWvOW+MA0NIvWMbgEOVRyk07LuZ+q4TWVvGT
NaCTZCaBdS+RtRYGOAvbzC0HAgMBAAGjggEOMIIBCjALBgNVHQ8EBAMCBaAwCQYD
VR0TBAIwADARBglghkgBhvhCAQEEBAMCBkAwMwYJYIZIAYb4QgENBCYWJE9wZW5T
U0wgR2VuZXJhdGVkIFNlcnZlciBDZXJ0aWZpY2F0ZTAdBgNVHQ4EFgQU/BTR8EuN
AJDy9bhxnk6Xw5JUrQswdAYDVR0jBG0wa4AU9KfAzJFGr2TzkfIn+Miyb4qHMnOh
SKRGMEQxCzAJBgNVBAYTAkRFMQ8wDQYDVQQIDAZIZXNzZW4xFDASBgNVBAoMC3By
aXZhY3lpZGVhMQ4wDAYDVQQDDAVDQTAwMYIJAPvI66yDzRIHMBMGA1UdJQQMMAoG
CCsGAQUFBwMBMA0GCSqGSIb3DQEBCwUAA4IBAQAhryyKzF5komRhJ0HC2b7e3qbg
eIiObkfuzwr1uIG+pPYWt9jkH2+474soMV/FXyeFcU/JrEY1TUl1y9BMfVN/eykp
6ySbdaFjvedsUhLKbRiZfqN4ES66vpu4g9TQAYcNiTyPxBk72axt8h3o0j1XONgt
VeuGDERRWlnVCm4Js+o6RIDqSH+vIUwfl/xo/mrVtDa2iVpf5lPMd1lPBC7yYQrX
AwZg3R+d9hU4Ef7a96gcWwX3im0+pKhJnwAFxURNk011c6BNJck5FrGxRg4WkqqN
ljnJD4vsM7pCR4KZ5xPjwFwPG/qGJ0ogAYaEAwipoUyrEViyIemAknrY1DAQ
-----END CERTIFICATE-----
