Certificate:
    Data:
        Version: 3 (0x2)
        Serial Number: 268435697 (0x100000f1)
        Signature Algorithm: sha256WithRSAEncryption
        Issuer: C=DE, ST=Hessen, O=privacyidea, CN=CA001
        Validity
            Not Before: Aug 14 19:44:57 2019 GMT
            Not After : Aug 13 19:44:57 2020 GMT
        Subject: CN=selfservice,CN=user,O=realm1/emailAddress=meine
        Subject Public Key Info:
            Public Key Algorithm: rsaEncryption
                RSA Public-Key: (2048 bit)
                Modulus:
                    00:cf:3c:d4:33:0e:12:c4:e6:da:cd:b6:56:a1:1c:
                    26:bb:26:1c:8a:4a:73:a8:58:8a:b6:1e:b3:8b:99:
                    d2:1d:07:c2:92:89:79:c0:69:d8:c8:df:28:61:98:
                    1e:b3:fe:ae:2b:bd:78:a9:f7:6e:47:dc:a3:a0:16:
                    8c:85:02:c1:4e:92:fd:72:6e:f0:c8:03:29:9b:b8:
                    00:6e:c0:83:95:c8:34:20:36:9c:b3:e5:e4:e6:76:
                    73:a3:1a:ad:40:96:e0:53:54:00:ec:76:79:9a:c6:
                    0d:7e:b6:bd:29:ec:83:f3:cb:89:a4:cb:6c:00:ba:
                    0c:c5:78:0f:ff:69:b8:94:f4:04:70:43:3f:d8:9e:
                    d7:a7:fb:5d:ce:75:8e:da:e7:c4:07:b1:9d:de:6f:
                    88:4b:b6:4d:9a:cf:f9:bc:fa:9f:cd:32:6d:f6:3a:
                    0b:0d:23:42:78:ec:97:42:bf:0e:4d:60:56:e1:d3:
                    02:f2:19:cb:84:57:90:e5:70:a1:a2:83:35:86:e2:
                    da:86:9f:f9:8a:c4:79:b3:52:28:da:cb:bb:34:ca:
                    d3:da:91:4a:cf:8d:76:a2:b2:6b:9b:f9:96:fd:09:
                    2a:da:11:23:4d:f0:cb:d6:b2:b1:0e:12:6c:9a:19:
                    65:98:87:ca:e4:ee:24:ce:44:ac:90:8f:9d:1b:c5:
                    2a:9d
                Exponent: 65537 (0x10001)
        X509v3 extensions:
            X509v3 Key Usage: 
                Digital Signature, Key Encipherment
            X509v3 Basic Constraints: 
                CA:FALSE
            Netscape Cert Type: 
                SSL Server
            Netscape Comment: 
                OpenSSL Generated Server Certificate
            X509v3 Subject Key Identifier: 
                4D:07:90:AD:FF:1D:0D:E7:1A:DD:D6:2E:FA:BA:34:CB:AA:1F:24:C6
            X509v3 Authority Key Identifier: 
                keyid:F4:A7:C0:CC:91:46:AF:64:F3:91:F2:27:F8:C8:B2:6F:8A:87:32:73
                DirName:/C=DE/ST=Hessen/O=privacyidea/CN=CA001
                serial:FB:C8:EB:AC:83:CD:12:07

            X509v3 Extended Key Usage: 
                TLS Web Server Authentication
    Signature Algorithm: sha256WithRSAEncryption
         64:46:40:a7:65:f3:56:9d:ce:b0:75:e1:cd:1b:6b:8b:30:7b:
         fe:82:97:cc:39:fa:84:24:52:8d:1f:94:a3:02:f6:00:d1:f8:
         d9:af:81:37:92:e9:87:02:71:38:74:e2:9b:8c:f7:3c:36:0c:
         a3:76:b1:56:db:6d:12:20:b9:02:b2:58:5a:e3:47:ef:9e:a1:
         92:10:62:ae:58:2c:69:6a:e8:fb:81:5d:d5:49:24:1c:85:97:
         4d:6a:36:6a:79:57:3a:d4:2a:95:ae:b6:9b:44:49:ca:69:9d:
         13:6a:cf:70:1b:48:b8:d3:01:53:86:77:ef:f2:62:83:98:ce:
         bc:43:f0:3d:c4:a3:54:1f:8a:a7:64:8e:01:80:55:31:20:90:
         3c:66:04:3c:12:25:ca:41:9f:35:b1:34:ec:a2:70:52:99:90:
         ad:ad:d2:d8:ae:07:46:2f:29:81:87:3f:a9:c6:7b:4a:c7:70:
         19:55:68:00:1c:d8:7a:56:fb:3d:34:df:4c:56:b6:56:2a:7c:
         4f:cd:ac:9b:6d:14:12:d4:cf:0c:9a:90:92:da:9d:68:83:4e:
         04:76:76:47:3e:22:14:14:00:f8:23:25:dd:b0:55:31:c2:11:
         53:72:2d:b8:6b:ba:e0:64:ec:6a:a6:6a:bc:9e:a0:be:87:98:
         28:57:7c:23
-----BEGIN CERTIFICATE-----
MIIEDzCCAvegAwIBAgIEEAAA8TANBgkqhkiG9w0BAQsFADBEMQswCQYDVQQGEwJE
RTEPMA0GA1UECAwGSGVzc2VuMRQwEgYDVQQKDAtwcml2YWN5aWRlYTEOMAwGA1UE
AwwFQ0EwMDEwHhcNMTkwODE0MTk0NDU3WhcNMjAwODEzMTk0NDU3WjA9MSUwIwYD
VQQDDBxzZWxmc2VydmljZSxDTj11c2VyLE89cmVhbG0xMRQwEgYJKoZIhvcNAQkB
FgVtZWluZTCCASIwDQYJKoZIhvcNAQEBBQADggEPADCCAQoCggEBAM881DMOEsTm
2s22VqEcJrsmHIpKc6hYirYes4uZ0h0HwpKJecBp2MjfKGGYHrP+riu9eKn3bkfc
o6AWjIUCwU6S/XJu8MgDKZu4AG7Ag5XINCA2nLPl5OZ2c6MarUCW4FNUAOx2eZrG
DX62vSnsg/PLiaTLbAC6DMV4D/9puJT0BHBDP9ie16f7Xc51jtrnxAexnd5viEu2
TZrP+bz6n80ybfY6Cw0jQnjsl0K/Dk1gVuHTAvIZy4RXkOVwoaKDNYbi2oaf+YrE
ebNSKNrLuzTK09qRSs+NdqKya5v5lv0JKtoRI03wy9aysQ4SbJoZZZiHyuTuJM5E
rJCPnRvFKp0CAwEAAaOCAQ4wggEKMAsGA1UdDwQEAwIFoDAJBgNVHRMEAjAAMBEG
CWCGSAGG+EIBAQQEAwIGQDAzBglghkgBhvhCAQ0EJhYkT3BlblNTTCBHZW5lcmF0
ZWQgU2VydmVyIENlcnRpZmljYXRlMB0GA1UdDgQWBBRNB5Ct/x0N5xrd1i76ujTL
qh8kxjB0BgNVHSMEbTBrgBT0p8DMkUavZPOR8if4yLJviocyc6FIpEYwRDELMAkG
A1UEBhMCREUxDzANBgNVBAgMBkhlc3NlbjEUMBIGA1UECgwLcHJpdmFjeWlkZWEx
DjAMBgNVBAMMBUNBMDAxggkA+8jrrIPNEgcwEwYDVR0lBAwwCgYIKwYBBQUHAwEw
DQYJKoZIhvcNAQELBQADggEBAGRGQKdl81adzrB14c0ba4swe/6Cl8w5+oQkUo0f
lKMC9gDR+NmvgTeS6YcCcTh04puM9zw2DKN2sVbbbRIguQKyWFrjR++eoZIQYq5Y
LGlq6PuBXdVJJByFl01qNmp5VzrUKpWutptEScppnRNqz3AbSLjTAVOGd+/yYoOY
zrxD8D3Eo1QfiqdkjgGAVTEgkDxmBDwSJcpBnzWxNOyicFKZkK2t0tiuB0YvKYGH
P6nGe0rHcBlVaAAc2HpW+z0030xWtlYqfE/NrJttFBLUzwyakJLanWiDTgR2dkc+
IhQUAPgjJd2wVTHCEVNyLbhruuBk7GqmaryeoL6HmChXfCM=
-----END CERTIFICATE-----
