Certificate:
    Data:
        Version: 3 (0x2)
        Serial Number: 268435674 (0x100000da)
        Signature Algorithm: sha256WithRSAEncryption
        Issuer: C=DE, ST=Hessen, O=privacyidea, CN=CA001
        Validity
            Not Before: Sep 25 05:36:11 2019 GMT
            Not After : Sep 24 05:36:11 2020 GMT
        Subject: C=DE, ST=Hessen, O=privacyidea, CN=requester.localdomain
        Subject Public Key Info:
            Public Key Algorithm: rsaEncryption
                RSA Public-Key: (2048 bit)
                Modulus:
                    00:cd:be:14:4f:fa:ce:01:3f:42:22:1b:1d:9c:af:
                    dd:92:d2:7f:db:6c:b7:3e:39:43:43:6b:13:03:f1:
                    05:f4:07:74:bc:76:69:28:0b:af:19:8e:d7:fc:e3:
                    cd:c6:58:f2:ca:7f:08:6d:53:fc:07:02:44:24:c6:
                    b4:34:4c:8c:04:fe:33:0e:40:e2:20:ba:02:73:5a:
                    f7:f5:4f:63:6e:cc:c6:b6:df:54:1d:37:39:7d:51:
                    36:26:5f:bd:dc:3f:a8:8b:6b:a2:ae:b6:9d:d6:21:
                    e7:df:41:b8:7a:28:2a:68:48:ca:a8:2d:ed:e1:e9:
                    46:5e:5a:72:6d:b4:84:38:87:91:fd:94:11:0b:28:
                    84:c6:c2:2f:2a:fb:01:f9:36:7a:09:75:d1:33:88:
                    3c:73:41:5b:c8:bf:94:89:70:a1:f0:c0:b9:2e:50:
                    53:1e:b1:17:64:69:f4:2d:81:e0:a9:0d:0e:32:e9:
                    ba:55:8a:85:f1:1b:6f:49:79:b4:7f:88:c3:0d:3e:
                    54:88:9b:3d:1f:38:8c:04:f3:ee:6a:63:2b:f5:c6:
                    db:b4:83:aa:c4:78:41:3a:7d:4b:e1:c8:3e:71:ca:
                    1b:61:59:ea:c6:c4:ca:32:5e:c9:e9:bf:12:29:e6:
                    c6:c3:63:fe:a0:55:da:7a:f1:60:98:4d:26:ed:fa:
                    70:2d
                Exponent: 65537 (0x10001)
        X509v3 extensions:
            X509v3 Key Usage: 
                Digital Signature, Key Encipherment
            X509v3 Basic Constraints: 
                CA:FALSE
            Netscape Cert Type: 
                SSL Server
            Netscape Comment: 
                OpenSSL Generated Server Certificate
            X509v3 Subject Key Identifier: 
                53:3F:ED:5D:09:07:B3:65:7B:AB:45:C9:24:5B:09:77:80:0A:96:ED
            X509v3 Authority Key Identifier: 
                keyid:F4:A7:C0:CC:91:46:AF:64:F3:91:F2:27:F8:C8:B2:6F:8A:87:32:73
                DirName:/C=DE/ST=Hessen/O=privacyidea/CN=CA001
                serial:FB:C8:EB:AC:83:CD:12:07

            X509v3 Extended Key Usage: 
                TLS Web Server Authentication
    Signature Algorithm: sha256WithRSAEncryption
         8f:cb:26:22:54:04:6b:b3:e3:4e:a6:1f:40:2b:66:0a:6d:75:
         16:86:3b:9a:5d:02:3f:b0:84:fc:62:29:62:32:9c:bd:b6:bd:
         cc:fd:95:22:f9:20:7f:ee:76:39:2b:45:66:e6:2a:72:b1:58:
         52:3c:67:d2:8b:d8:28:8e:0f:c8:32:91:7e:b7:43:1c:87:be:
         73:5e:b5:a9:d3:60:5c:f3:3a:7a:61:ef:f5:cd:6f:83:a5:90:
         ed:9b:3d:80:e2:e7:38:80:49:b6:ac:db:52:8c:5f:31:ab:94:
         ba:65:de:d7:33:8c:7e:5a:0b:97:a5:d2:db:a6:6e:7d:85:c1:
         4e:49:46:eb:41:b9:d4:aa:5e:b4:ce:85:18:d9:cd:87:cb:3d:
         2b:c1:bc:ea:73:44:4d:d8:c6:71:4d:50:63:35:64:d7:ac:00:
         d6:9d:e8:ad:d9:62:50:0a:fd:42:48:e6:cf:cb:e3:d6:fd:ff:
         c2:ba:b2:1e:8e:d7:1f:2c:ac:99:3c:2a:c9:af:fe:e4:8c:4c:
         3b:5c:ed:ce:2c:12:dc:81:be:02:b1:13:65:96:23:6d:2b:a0:
         c7:bc:26:78:6c:a5:99:97:ab:f2:47:c6:2d:2c:90:37:b2:01:
         66:c0:d2:75:0b:dc:75:8d:14:55:8b:8b:eb:75:97:d5:63:56:
         b0:73:20:75
-----BEGIN CERTIFICATE-----
MIIEJjCCAw6gAwIBAgIEEAAA2jANBgkqhkiG9w0BAQsFADBEMQswCQYDVQQGEwJE
RTEPMA0GA1UECAwGSGVzc2VuMRQwEgYDVQQKDAtwcml2YWN5aWRlYTEOMAwGA1UE
AwwFQ0EwMDEwHhcNMTkwOTI1MDUzNjExWhcNMjAwOTI0MDUzNjExWjBUMQswCQYD
VQQGEwJERTEPMA0GA1UECAwGSGVzc2VuMRQwEgYDVQQKDAtwcml2YWN5aWRlYTEe
MBwGA1UEAwwVcmVxdWVzdGVyLmxvY2FsZG9tYWluMIIBIjANBgkqhkiG9w0BAQEF
AAOCAQ8AMIIBCgKCAQEAzb4UT/rOAT9CIhsdnK/dktJ/22y3PjlDQ2sTA/EF9Ad0
vHZpKAuvGY7X/OPNxljyyn8IbVP8BwJEJMa0NEyMBP4zDkDiILoCc1r39U9jbszG
tt9UHTc5fVE2Jl+93D+oi2uirrad1iHn30G4eigqaEjKqC3t4elGXlpybbSEOIeR
/ZQRCyiExsIvKvsB+TZ6CXXRM4g8c0FbyL+UiXCh8MC5LlBTHrEXZGn0LYHgqQ0O
Mum6VYqF8RtvSXm0f4jDDT5UiJs9HziMBPPuamMr9cbbtIOqxHhBOn1L4cg+ccob
YVnqxsTKMl7J6b8SKebGw2P+oFXaevFgmE0m7fpwLQIDAQABo4IBDjCCAQowCwYD
VR0PBAQDAgWgMAkGA1UdEwQCMAAwEQYJYIZIAYb4QgEBBAQDAgZAMDMGCWCGSAGG
+EIBDQQmFiRPcGVuU1NMIEdlbmVyYXRlZCBTZXJ2ZXIgQ2VydGlmaWNhdGUwHQYD
VR0OBBYEFFM/7V0JB7Nle6tFySRbCXeACpbtMHQGA1UdIwRtMGuAFPSnwMyRRq9k
85HyJ/jIsm+KhzJzoUikRjBEMQswCQYDVQQGEwJERTEPMA0GA1UECAwGSGVzc2Vu
MRQwEgYDVQQKDAtwcml2YWN5aWRlYTEOMAwGA1UEAwwFQ0EwMDGCCQD7yOusg80S
BzATBgNVHSUEDDAKBggrBgEFBQcDATANBgkqhkiG9w0BAQsFAAOCAQEAj8smIlQE
a7PjTqYfQCtmCm11FoY7ml0CP7CE/GIpYjKcvba9zP2VIvkgf+52OStFZuYqcrFY
Ujxn0ovYKI4PyDKRfrdDHIe+c161qdNgXPM6emHv9c1vg6WQ7Zs9gOLnOIBJtqzb
UoxfMauUumXe1zOMfloLl6XS26ZufYXBTklG60G51KpetM6FGNnNh8s9K8G86nNE
TdjGcU1QYzVk16wA1p3ordliUAr9Qkjmz8vj1v3/wrqyHo7XHyysmTwqya/+5IxM
O1ztziwS3IG+ArETZZYjbSugx7wmeGylmZer8kfGLSyQN7IBZsDSdQvcdY0UVYuL
63WX1WNWsHMgdQ==
-----END CERTIFICATE-----
