Certificate:
    Data:
        Version: 3 (0x2)
        Serial Number: 268435693 (0x100000ed)
        Signature Algorithm: sha256WithRSAEncryption
        Issuer: C=DE, ST=Hessen, O=privacyidea, CN=CA001
        Validity
            Not Before: Aug 14 19:40:39 2019 GMT
            Not After : Aug 13 19:40:39 2020 GMT
        Subject: CN=Steve Test/emailAddress=steve@openssl.org
        Subject Public Key Info:
            Public Key Algorithm: rsaEncryption
                RSA Public-Key: (2048 bit)
                Modulus:
                    00:d2:81:89:20:51:48:0f:73:f4:11:32:24:d5:1f:
                    1c:fd:5c:f5:b6:e6:c5:f0:52:81:dc:d2:af:66:4a:
                    7c:93:31:61:5c:af:d1:6d:06:70:03:60:7c:72:0c:
                    88:dd:49:cd:9e:02:6c:d2:5a:d7:53:0f:f3:da:be:
                    69:64:b5:0f:0c:00:e3:b3:50:47:a3:b3:9b:ba:13:
                    50:d6:58:5a:4b:ab:39:e0:11:ca:0a:27:67:03:78:
                    22:66:6d:92:1e:1b:5c:49:ae:e6:6b:d1:8e:3b:9d:
                    06:d3:c6:ac:4d:53:43:10:ab:e8:96:c1:87:82:97:
                    99:8f:20:d3:99:12:37:31:84:e1:8a:ff:29:03:5f:
                    22:90:3e:7f:9b:e0:20:c1:ad:dc:ae:4c:39:1a:31:
                    96:17:02:8c:b2:d9:b4:0d:20:12:9b:7d:86:54:fd:
                    33:fd:c1:2a:62:46:f8:60:96:cf:6e:01:6f:22:df:
                    13:47:e7:97:ec:05:72:23:a3:62:f8:fa:ef:ac:9c:
                    72:f0:37:cb:2f:37:cf:90:a8:27:51:86:c6:d7:78:
                    08:8f:7e:25:a2:15:70:a2:fb:1c:b6:15:5e:a0:97:
                    8b:81:4c:09:28:8a:27:3b:94:bc:71:db:5b:71:37:
                    9a:2b:16:e0:6f:b5:c9:f5:4b:4f:20:ba:65:cf:af:
                    ad:ad
                Exponent: 65537 (0x10001)
        X509v3 extensions:
            X509v3 Key Usage: 
                Digital Signature, Key Encipherment
            X509v3 Basic Constraints: 
                CA:FALSE
            Netscape Cert Type: 
                SSL Server
            Netscape Comment: 
                OpenSSL Generated Server Certificate
            X509v3 Subject Key Identifier: 
                E5:25:6D:3E:AF:0D:DD:3F:4C:F2:45:19:39:D5:14:DB:7E:9C:C0:AD
            X509v3 Authority Key Identifier: 
                keyid:F4:A7:C0:CC:91:46:AF:64:F3:91:F2:27:F8:C8:B2:6F:8A:87:32:73
                DirName:/C=DE/ST=Hessen/O=privacyidea/CN=CA001
                serial:FB:C8:EB:AC:83:CD:12:07

            X509v3 Extended Key Usage: 
                TLS Web Server Authentication
    Signature Algorithm: sha256WithRSAEncryption
         27:dc:46:0b:0a:bc:be:02:bb:de:7a:58:d0:93:cb:a7:22:ee:
         15:2f:e6:6c:dd:55:84:2c:4e:41:60:87:7f:64:93:93:c0:b7:
         c3:e5:a2:6a:50:96:2b:c3:c8:a7:97:3c:a2:4a:05:2b:cf:bb:
         de:fa:88:9b:41:85:aa:f4:95:33:61:29:3e:d3:28:ab:50:c9:
         a8:66:24:a5:30:9d:da:63:c7:27:d3:30:d2:30:cf:7c:21:a9:
         a7:0c:6b:12:fb:ef:a4:68:a4:1a:9b:93:96:79:8e:46:36:33:
         8a:57:2e:82:94:ab:c8:7d:ef:45:c9:7a:ce:57:e1:4f:65:54:
         d2:4e:a1:f5:1f:04:c8:99:27:6c:95:8c:d6:44:0b:05:55:78:
         52:51:c3:c4:d4:bf:1b:93:37:fb:25:07:39:19:f2:1d:1d:bb:
         04:03:b4:1b:5a:9e:55:1c:d1:09:b1:a6:65:af:8e:35:e3:df:
         84:d3:d9:43:0a:42:c1:5a:f5:d7:d9:26:8b:96:59:e9:60:40:
         8d:86:5d:9a:72:82:3e:55:3b:fe:0d:ea:48:6e:b3:87:8b:f4:
         78:69:ef:02:30:b6:07:f9:81:1b:a7:50:5c:20:9e:48:8e:d4:
         aa:c8:d5:3b:4d:90:50:16:70:81:c4:77:ad:ac:c4:a5:b1:09:
         f1:e4:e7:0a
-----BEGIN CERTIFICATE-----
MIIECTCCAvGgAwIBAgIEEAAA7TANBgkqhkiG9w0BAQsFADBEMQswCQYDVQQGEwJE
RTEPMA0GA1UECAwGSGVzc2VuMRQwEgYDVQQKDAtwcml2YWN5aWRlYTEOMAwGA1UE
AwwFQ0EwMDEwHhcNMTkwODE0MTk0MDM5WhcNMjAwODEzMTk0MDM5WjA3MRMwEQYD
VQQDDApTdGV2ZSBUZXN0MSAwHgYJKoZIhvcNAQkBFhFzdGV2ZUBvcGVuc3NsLm9y
ZzCCASIwDQYJKoZIhvcNAQEBBQADggEPADCCAQoCggEBANKBiSBRSA9z9BEyJNUf
HP1c9bbmxfBSgdzSr2ZKfJMxYVyv0W0GcANgfHIMiN1JzZ4CbNJa11MP89q+aWS1
DwwA47NQR6Ozm7oTUNZYWkurOeARygonZwN4ImZtkh4bXEmu5mvRjjudBtPGrE1T
QxCr6JbBh4KXmY8g05kSNzGE4Yr/KQNfIpA+f5vgIMGt3K5MORoxlhcCjLLZtA0g
Ept9hlT9M/3BKmJG+GCWz24BbyLfE0fnl+wFciOjYvj676yccvA3yy83z5CoJ1GG
xtd4CI9+JaIVcKL7HLYVXqCXi4FMCSiKJzuUvHHbW3E3misW4G+1yfVLTyC6Zc+v
ra0CAwEAAaOCAQ4wggEKMAsGA1UdDwQEAwIFoDAJBgNVHRMEAjAAMBEGCWCGSAGG
+EIBAQQEAwIGQDAzBglghkgBhvhCAQ0EJhYkT3BlblNTTCBHZW5lcmF0ZWQgU2Vy
dmVyIENlcnRpZmljYXRlMB0GA1UdDgQWBBTlJW0+rw3dP0zyRRk51RTbfpzArTB0
BgNVHSMEbTBrgBT0p8DMkUavZPOR8if4yLJviocyc6FIpEYwRDELMAkGA1UEBhMC
REUxDzANBgNVBAgMBkhlc3NlbjEUMBIGA1UECgwLcHJpdmFjeWlkZWExDjAMBgNV
BAMMBUNBMDAxggkA+8jrrIPNEgcwEwYDVR0lBAwwCgYIKwYBBQUHAwEwDQYJKoZI
hvcNAQELBQADggEBACfcRgsKvL4Cu956WNCTy6ci7hUv5mzdVYQsTkFgh39kk5PA
t8PlompQlivDyKeXPKJKBSvPu976iJtBhar0lTNhKT7TKKtQyahmJKUwndpjxyfT
MNIwz3whqacMaxL776RopBqbk5Z5jkY2M4pXLoKUq8h970XJes5X4U9lVNJOofUf
BMiZJ2yVjNZECwVVeFJRw8TUvxuTN/slBzkZ8h0duwQDtBtanlUc0QmxpmWvjjXj
34TT2UMKQsFa9dfZJouWWelgQI2GXZpygj5VO/4N6khus4eL9Hhp7wIwtgf5gRun
UFwgnkiO1KrI1TtNkFAWcIHEd62sxKWxCfHk5wo=
-----END CERTIFICATE-----
