Certificate:
    Data:
        Version: 3 (0x2)
        Serial Number: 268435665 (0x100000d1)
        Signature Algorithm: sha256WithRSAEncryption
        Issuer: C=DE, ST=Hessen, O=privacyidea, CN=CA001
        Validity
            Not Before: Sep 25 09:46:49 2019 GMT
            Not After : Sep 24 09:46:49 2020 GMT
        Subject: OU=realm1, CN=cornelius/emailAddress=user@localhost.localdomain
        Subject Public Key Info:
            Public Key Algorithm: rsaEncryption
                RSA Public-Key: (2048 bit)
                Modulus:
                    00:d8:5e:e8:29:00:c4:aa:04:4a:5b:cb:e8:22:40:
                    66:47:6d:e9:62:53:1c:8b:c8:e0:42:c5:a7:1d:0c:
                    36:ae:e7:b5:8d:b1:08:91:ab:2a:9b:0c:f6:b5:38:
                    76:3e:9e:29:ef:4a:b3:c6:30:b4:8c:51:d5:bf:e2:
                    c5:f6:76:f2:08:a7:12:38:02:03:b4:04:85:76:80:
                    95:71:62:ac:b1:2f:dc:57:c1:b7:19:ec:22:c9:37:
                    71:9b:a4:a3:21:ff:3a:29:70:3e:80:d8:4b:a8:fa:
                    f9:3c:7a:85:f6:1e:4d:40:0d:aa:e4:01:af:d9:63:
                    f9:f4:09:40:d8:2f:bb:fd:54:26:7d:b2:dd:48:a7:
                    bf:60:da:53:c0:fd:00:0c:1c:dd:70:98:7e:33:b5:
                    14:53:a0:87:87:86:40:d5:c5:d8:92:94:1a:6a:2c:
                    57:79:16:19:d5:ab:1b:43:cd:b1:21:50:79:e9:58:
                    7d:72:02:1f:dc:07:91:04:93:8c:9a:9f:a4:49:c0:
                    1d:8c:ed:cd:67:5a:a3:07:22:d5:12:74:53:45:c4:
                    34:50:0f:96:71:4b:aa:91:fc:0f:bb:0b:d9:30:0b:
                    ec:71:26:0d:dd:46:ee:9d:aa:ba:64:89:82:d0:3e:
                    9b:95:53:9a:d0:aa:89:e1:63:0f:43:ea:46:27:dd:
                    c8:e3
                Exponent: 65537 (0x10001)
        X509v3 extensions:
            X509v3 Key Usage: 
                Digital Signature, Key Encipherment
            X509v3 Basic Constraints: 
                CA:FALSE
            Netscape Cert Type: 
                SSL Server
            Netscape Comment: 
                OpenSSL Generated Server Certificate
            X509v3 Subject Key Identifier: 
                90:BB:45:96:A9:A2:D4:D9:72:7A:E6:0C:4B:6F:66:8D:22:29:87:F6
            X509v3 Authority Key Identifier: 
                keyid:F4:A7:C0:CC:91:46:AF:64:F3:91:F2:27:F8:C8:B2:6F:8A:87:32:73
                DirName:/C=DE/ST=Hessen/O=privacyidea/CN=CA001
                serial:FB:C8:EB:AC:83:CD:12:07

            X509v3 Extended Key Usage: 
                TLS Web Server Authentication
    Signature Algorithm: sha256WithRSAEncryption
         68:74:1e:ad:71:8f:a8:b6:b8:5a:d3:cb:1e:95:21:6b:0a:36:
         84:cc:09:bd:45:32:5f:5b:81:05:26:b3:8d:83:6f:6d:c1:a8:
         4d:b6:a3:ea:19:2f:3d:2e:66:0f:bd:8a:5e:11:02:c4:60:42:
         da:64:9e:18:b8:38:ae:3a:e6:62:37:2d:c5:dd:02:f7:02:ff:
         6d:8a:2e:8a:fb:57:ad:91:f3:79:bb:ec:f8:48:8e:fd:01:69:
         42:95:16:46:df:bd:ca:48:43:14:ba:f3:d4:7f:4d:bf:20:c4:
         0f:53:40:5e:59:52:3c:f0:5c:05:c9:84:0b:c6:f6:fe:9d:23:
         b1:d1:0d:ad:b0:53:1d:9c:75:8e:4e:72:e6:ce:56:18:39:eb:
         80:1e:94:c9:c7:90:e5:04:79:ca:c2:cc:e1:12:3c:42:c0:74:
         11:36:43:d0:c4:bc:9e:51:b8:2b:e9:02:55:c4:b7:10:bb:c8:
         b4:56:20:e1:06:7b:1f:b9:47:ad:2f:71:8d:0d:7f:6d:90:4d:
         ef:27:8f:2f:6a:2c:75:29:c9:30:d5:56:46:61:5b:61:ad:85:
         99:f3:dc:66:14:0f:e4:83:d1:b4:b2:65:39:21:ed:06:d2:f2:
         e3:11:ad:28:f9:22:d5:b3:a1:3b:61:0a:f9:b3:d2:58:7e:d8:
         d9:b3:47:57
-----BEGIN CERTIFICATE-----
MIIEIjCCAwqgAwIBAgIEEAAA0TANBgkqhkiG9w0BAQsFADBEMQswCQYDVQQGEwJE
RTEPMA0GA1UECAwGSGVzc2VuMRQwEgYDVQQKDAtwcml2YWN5aWRlYTEOMAwGA1UE
AwwFQ0EwMDEwHhcNMTkwOTI1MDk0NjQ5WhcNMjAwOTI0MDk0NjQ5WjBQMQ8wDQYD
VQQLDAZyZWFsbTExEjAQBgNVBAMMCWNvcm5lbGl1czEpMCcGCSqGSIb3DQEJARYa
dXNlckBsb2NhbGhvc3QubG9jYWxkb21haW4wggEiMA0GCSqGSIb3DQEBAQUAA4IB
DwAwggEKAoIBAQDYXugpAMSqBEpby+giQGZHbeliUxyLyOBCxacdDDau57WNsQiR
qyqbDPa1OHY+ninvSrPGMLSMUdW/4sX2dvIIpxI4AgO0BIV2gJVxYqyxL9xXwbcZ
7CLJN3GbpKMh/zopcD6A2Euo+vk8eoX2Hk1ADarkAa/ZY/n0CUDYL7v9VCZ9st1I
p79g2lPA/QAMHN1wmH4ztRRToIeHhkDVxdiSlBpqLFd5FhnVqxtDzbEhUHnpWH1y
Ah/cB5EEk4yan6RJwB2M7c1nWqMHItUSdFNFxDRQD5ZxS6qR/A+7C9kwC+xxJg3d
Ru6dqrpkiYLQPpuVU5rQqonhYw9D6kYn3cjjAgMBAAGjggEOMIIBCjALBgNVHQ8E
BAMCBaAwCQYDVR0TBAIwADARBglghkgBhvhCAQEEBAMCBkAwMwYJYIZIAYb4QgEN
BCYWJE9wZW5TU0wgR2VuZXJhdGVkIFNlcnZlciBDZXJ0aWZpY2F0ZTAdBgNVHQ4E
FgQUkLtFlqmi1NlyeuYMS29mjSIph/YwdAYDVR0jBG0wa4AU9KfAzJFGr2TzkfIn
+Miyb4qHMnOhSKRGMEQxCzAJBgNVBAYTAkRFMQ8wDQYDVQQIDAZIZXNzZW4xFDAS
BgNVBAoMC3ByaXZhY3lpZGVhMQ4wDAYDVQQDDAVDQTAwMYIJAPvI66yDzRIHMBMG
A1UdJQQMMAoGCCsGAQUFBwMBMA0GCSqGSIb3DQEBCwUAA4IBAQBodB6tcY+otrha
08selSFrCjaEzAm9RTJfW4EFJrONg29twahNtqPqGS89LmYPvYpeEQLEYELaZJ4Y
uDiuOuZiNy3F3QL3Av9tii6K+1etkfN5u+z4SI79AWlClRZG373KSEMUuvPUf02/
IMQPU0BeWVI88FwFyYQLxvb+nSOx0Q2tsFMdnHWOTnLmzlYYOeuAHpTJx5DlBHnK
wszhEjxCwHQRNkPQxLyeUbgr6QJVxLcQu8i0ViDhBnsfuUetL3GNDX9tkE3vJ48v
aix1Kckw1VZGYVthrYWZ89xmFA/kg9G0smU5Ie0G0vLjEa0o+SLVs6E7YQr5s9JY
ftjZs0dX
-----END CERTIFICATE-----
