Certificate:
    Data:
        Version: 3 (0x2)
        Serial Number: 268435694 (0x100000ee)
        Signature Algorithm: sha256WithRSAEncryption
        Issuer: C=DE, ST=Hessen, O=privacyidea, CN=CA001
        Validity
            Not Before: Aug 14 19:40:39 2019 GMT
            Not After : Sep  2 19:40:39 2021 GMT
        Subject: CN=Steve Test/emailAddress=steve@openssl.org
        Subject Public Key Info:
            Public Key Algorithm: rsaEncryption
                RSA Public-Key: (2048 bit)
                Modulus:
                    00:d2:81:89:20:51:48:0f:73:f4:11:32:24:d5:1f:
                    1c:fd:5c:f5:b6:e6:c5:f0:52:81:dc:d2:af:66:4a:
                    7c:93:31:61:5c:af:d1:6d:06:70:03:60:7c:72:0c:
                    88:dd:49:cd:9e:02:6c:d2:5a:d7:53:0f:f3:da:be:
                    69:64:b5:0f:0c:00:e3:b3:50:47:a3:b3:9b:ba:13:
                    50:d6:58:5a:4b:ab:39:e0:11:ca:0a:27:67:03:78:
                    22:66:6d:92:1e:1b:5c:49:ae:e6:6b:d1:8e:3b:9d:
                    06:d3:c6:ac:4d:53:43:10:ab:e8:96:c1:87:82:97:
                    99:8f:20:d3:99:12:37:31:84:e1:8a:ff:29:03:5f:
                    22:90:3e:7f:9b:e0:20:c1:ad:dc:ae:4c:39:1a:31:
                    96:17:02:8c:b2:d9:b4:0d:20:12:9b:7d:86:54:fd:
                    33:fd:c1:2a:62:46:f8:60:96:cf:6e:01:6f:22:df:
                    13:47:e7:97:ec:05:72:23:a3:62:f8:fa:ef:ac:9c:
                    72:f0:37:cb:2f:37:cf:90:a8:27:51:86:c6:d7:78:
                    08:8f:7e:25:a2:15:70:a2:fb:1c:b6:15:5e:a0:97:
                    8b:81:4c:09:28:8a:27:3b:94:bc:71:db:5b:71:37:
                    9a:2b:16:e0:6f:b5:c9:f5:4b:4f:20:ba:65:cf:af:
                    ad:ad
                Exponent: 65537 (0x10001)
        X509v3 extensions:
            X509v3 Key Usage: 
                Digital Signature, Key Encipherment
            X509v3 Basic Constraints: 
                CA:FALSE
            Netscape Cert Type: 
                SSL Server
            Netscape Comment: 
                OpenSSL Generated Server Certificate
            X509v3 Subject Key Identifier: 
                E5:25:6D:3E:AF:0D:DD:3F:4C:F2:45:19:39:D5:14:DB:7E:9C:C0:AD
            X509v3 Authority Key Identifier: 
                keyid:F4:A7:C0:CC:91:46:AF:64:F3:91:F2:27:F8:C8:B2:6F:8A:87:32:73
                DirName:/C=DE/ST=Hessen/O=privacyidea/CN=CA001
                serial:FB:C8:EB:AC:83:CD:12:07

            X509v3 Extended Key Usage: 
                TLS Web Server Authentication
    Signature Algorithm: sha256WithRSAEncryption
         59:17:a2:85:99:0a:bb:11:59:88:4b:70:57:39:57:e0:8e:47:
         18:4d:f0:58:d6:4f:87:a3:68:e7:10:05:ab:6f:c3:2f:14:fb:
         90:da:16:4f:11:3f:b5:ee:d8:5d:04:1a:50:af:36:2c:69:e0:
         14:37:57:97:10:b3:de:60:31:a3:77:77:0c:92:1c:bb:e9:83:
         64:e3:45:4a:23:1f:cf:14:d4:a7:b7:2d:5f:ae:e2:a9:b8:b9:
         04:f8:9e:c4:a0:c1:1a:f1:64:44:63:c1:09:a6:b7:ea:a3:31:
         63:46:57:1c:97:dc:64:d7:b7:c0:4c:a5:9b:ef:6c:da:19:1d:
         ba:99:10:e6:e9:77:30:3f:ec:43:08:a2:b9:65:3c:a7:03:83:
         27:06:03:90:6d:28:66:9c:d1:0f:29:01:75:62:73:0e:04:02:
         f6:60:68:b1:8a:0d:f3:be:ab:e5:a2:33:de:86:21:8a:29:21:
         05:4c:f6:60:aa:f1:24:5b:53:09:c3:f9:64:5a:ac:72:c5:07:
         5a:f9:71:28:0c:9b:16:43:b4:65:d2:e8:b7:7a:22:f8:df:c8:
         18:9c:5f:da:9b:86:a5:02:9b:84:e5:22:0f:b8:ea:be:47:1e:
         72:d4:0c:8e:b9:a1:a7:f2:af:c7:6e:40:06:d7:4d:c9:7d:a7:
         94:b9:b0:ff
-----BEGIN CERTIFICATE-----
MIIECTCCAvGgAwIBAgIEEAAA7jANBgkqhkiG9w0BAQsFADBEMQswCQYDVQQGEwJE
RTEPMA0GA1UECAwGSGVzc2VuMRQwEgYDVQQKDAtwcml2YWN5aWRlYTEOMAwGA1UE
AwwFQ0EwMDEwHhcNMTkwODE0MTk0MDM5WhcNMjEwOTAyMTk0MDM5WjA3MRMwEQYD
VQQDDApTdGV2ZSBUZXN0MSAwHgYJKoZIhvcNAQkBFhFzdGV2ZUBvcGVuc3NsLm9y
ZzCCASIwDQYJKoZIhvcNAQEBBQADggEPADCCAQoCggEBANKBiSBRSA9z9BEyJNUf
HP1c9bbmxfBSgdzSr2ZKfJMxYVyv0W0GcANgfHIMiN1JzZ4CbNJa11MP89q+aWS1
DwwA47NQR6Ozm7oTUNZYWkurOeARygonZwN4ImZtkh4bXEmu5mvRjjudBtPGrE1T
QxCr6JbBh4KXmY8g05kSNzGE4Yr/KQNfIpA+f5vgIMGt3K5MORoxlhcCjLLZtA0g
Ept9hlT9M/3BKmJG+GCWz24BbyLfE0fnl+wFciOjYvj676yccvA3yy83z5CoJ1GG
xtd4CI9+JaIVcKL7HLYVXqCXi4FMCSiKJzuUvHHbW3E3misW4G+1yfVLTyC6Zc+v
ra0CAwEAAaOCAQ4wggEKMAsGA1UdDwQEAwIFoDAJBgNVHRMEAjAAMBEGCWCGSAGG
+EIBAQQEAwIGQDAzBglghkgBhvhCAQ0EJhYkT3BlblNTTCBHZW5lcmF0ZWQgU2Vy
dmVyIENlcnRpZmljYXRlMB0GA1UdDgQWBBTlJW0+rw3dP0zyRRk51RTbfpzArTB0
BgNVHSMEbTBrgBT0p8DMkUavZPOR8if4yLJviocyc6FIpEYwRDELMAkGA1UEBhMC
REUxDzANBgNVBAgMBkhlc3NlbjEUMBIGA1UECgwLcHJpdmFjeWlkZWExDjAMBgNV
BAMMBUNBMDAxggkA+8jrrIPNEgcwEwYDVR0lBAwwCgYIKwYBBQUHAwEwDQYJKoZI
hvcNAQELBQADggEBAFkXooWZCrsRWYhLcFc5V+CORxhN8FjWT4ejaOcQBatvwy8U
+5DaFk8RP7Xu2F0EGlCvNixp4BQ3V5cQs95gMaN3dwySHLvpg2TjRUojH88U1Ke3
LV+u4qm4uQT4nsSgwRrxZERjwQmmt+qjMWNGVxyX3GTXt8BMpZvvbNoZHbqZEObp
dzA/7EMIorllPKcDgycGA5BtKGac0Q8pAXVicw4EAvZgaLGKDfO+q+WiM96GIYop
IQVM9mCq8SRbUwnD+WRarHLFB1r5cSgMmxZDtGXS6Ld6IvjfyBicX9qbhqUCm4Tl
Ig+46r5HHnLUDI65oafyr8duQAbXTcl9p5S5sP8=
-----END CERTIFICATE-----
