Certificate:
    Data:
        Version: 3 (0x2)
        Serial Number: 268435671 (0x100000d7)
        Signature Algorithm: sha256WithRSAEncryption
        Issuer: C=DE, ST=Hessen, O=privacyidea, CN=CA001
        Validity
            Not Before: Sep 25 09:50:29 2019 GMT
            Not After : Sep 24 09:50:29 2020 GMT
        Subject: OU=realm1, CN=cornelius/emailAddress=user@localhost.localdomain
        Subject Public Key Info:
            Public Key Algorithm: rsaEncryption
                RSA Public-Key: (2048 bit)
                Modulus:
                    00:fb:90:73:12:ef:a2:22:7e:64:b1:46:36:1b:53:
                    f5:bf:1a:1a:42:14:a2:19:3e:cf:ee:fd:b0:5f:dc:
                    a0:c8:f6:b2:32:f1:6a:d0:9e:fe:3e:58:95:71:7f:
                    de:23:ad:59:18:35:17:e8:a2:e9:ac:5e:71:53:c7:
                    ed:a0:68:ce:20:ae:20:e1:13:1f:ad:cd:8c:85:b3:
                    a2:1a:58:e2:e7:c1:c5:8d:12:1f:ca:88:c4:d1:2d:
                    31:63:5e:71:a1:60:a0:30:d4:21:c8:4e:8c:f5:fa:
                    63:c5:16:e4:e8:d3:f3:95:e0:17:71:c0:ee:a3:85:
                    1b:c4:66:00:b0:ab:d1:6b:9b:bf:19:48:bf:d2:7c:
                    18:66:13:cf:09:4b:e4:f6:55:34:66:a6:cb:d0:7f:
                    d5:07:c7:18:48:98:a5:2d:92:ef:63:d7:1e:3c:88:
                    9e:b9:4f:21:25:78:49:16:99:d7:f3:5a:85:4b:cb:
                    b2:5f:43:2b:f4:3b:d5:e3:86:40:2c:98:c5:81:e2:
                    49:2b:e2:dd:24:bb:88:99:16:3b:c8:75:5f:0b:b2:
                    1f:43:80:b4:a6:7b:a7:8a:57:1d:9c:4d:c6:a1:35:
                    ab:6f:ba:20:81:61:6a:c5:f1:8d:1c:9b:b1:73:d6:
                    5c:d5:ca:1a:b4:b7:d3:11:33:58:8c:4d:de:a1:ab:
                    87:d9
                Exponent: 65537 (0x10001)
        X509v3 extensions:
            X509v3 Key Usage: 
                Digital Signature, Key Encipherment
            X509v3 Basic Constraints: 
                CA:FALSE
            Netscape Cert Type: 
                SSL Server
            Netscape Comment: 
                OpenSSL Generated Server Certificate
            X509v3 Subject Key Identifier: 
                92:10:66:E3:BD:1A:77:A4:A0:B7:24:AD:64:9B:91:3D:CF:58:30:CB
            X509v3 Authority Key Identifier: 
                keyid:F4:A7:C0:CC:91:46:AF:64:F3:91:F2:27:F8:C8:B2:6F:8A:87:32:73
                DirName:/C=DE/ST=Hessen/O=privacyidea/CN=CA001
                serial:FB:C8:EB:AC:83:CD:12:07

            X509v3 Extended Key Usage: 
                TLS Web Server Authentication
    Signature Algorithm: sha256WithRSAEncryption
         b7:11:e6:9b:25:91:7c:d2:8c:c4:a8:91:c7:17:1c:2e:51:7d:
         13:33:b7:8d:ca:c3:41:7b:59:71:f8:98:8b:c4:cf:27:41:60:
         2e:5c:d1:de:86:70:c4:91:5b:1d:3f:24:c4:0a:5d:6f:13:4e:
         04:1c:70:d9:ca:ec:48:be:41:0d:5d:98:b6:f1:8b:c6:19:d1:
         8d:81:f2:dc:5a:9e:1f:63:23:d2:33:e5:b4:a1:91:7b:a0:db:
         14:74:7a:44:20:71:3f:8f:cc:73:6d:3a:5b:4c:63:51:53:54:
         22:7d:d3:e2:74:08:ff:fb:2c:52:41:bf:51:df:ba:12:22:6c:
         38:db:95:96:7d:a2:25:4d:77:3a:ac:b0:b8:f4:cd:b5:c8:33:
         6f:82:76:4b:57:3c:f3:ea:89:db:89:fb:ce:2b:18:d2:4c:87:
         a5:ce:f3:0f:88:4f:32:f2:a4:55:0b:54:80:3e:9a:9b:35:1f:
         56:d8:3f:ba:b0:53:d6:01:9a:68:62:7b:97:6d:61:20:69:a5:
         03:bc:94:5e:83:41:56:1c:8a:ac:b1:b3:74:f9:83:5c:41:cf:
         2a:3b:af:be:6e:a0:c4:69:47:8a:ef:8d:6d:ae:dd:40:a1:9d:
         89:9f:fb:a1:c2:96:62:43:2e:97:99:f8:c3:aa:66:92:71:a2:
         ac:d6:61:de
-----BEGIN CERTIFICATE-----
MIIEIjCCAwqgAwIBAgIEEAAA1zANBgkqhkiG9w0BAQsFADBEMQswCQYDVQQGEwJE
RTEPMA0GA1UECAwGSGVzc2VuMRQwEgYDVQQKDAtwcml2YWN5aWRlYTEOMAwGA1UE
AwwFQ0EwMDEwHhcNMTkwOTI1MDk1MDI5WhcNMjAwOTI0MDk1MDI5WjBQMQ8wDQYD
VQQLDAZyZWFsbTExEjAQBgNVBAMMCWNvcm5lbGl1czEpMCcGCSqGSIb3DQEJARYa
dXNlckBsb2NhbGhvc3QubG9jYWxkb21haW4wggEiMA0GCSqGSIb3DQEBAQUAA4IB
DwAwggEKAoIBAQD7kHMS76IifmSxRjYbU/W/GhpCFKIZPs/u/bBf3KDI9rIy8WrQ
nv4+WJVxf94jrVkYNRfooumsXnFTx+2gaM4griDhEx+tzYyFs6IaWOLnwcWNEh/K
iMTRLTFjXnGhYKAw1CHIToz1+mPFFuTo0/OV4BdxwO6jhRvEZgCwq9Frm78ZSL/S
fBhmE88JS+T2VTRmpsvQf9UHxxhImKUtku9j1x48iJ65TyEleEkWmdfzWoVLy7Jf
Qyv0O9XjhkAsmMWB4kkr4t0ku4iZFjvIdV8Lsh9DgLSme6eKVx2cTcahNatvuiCB
YWrF8Y0cm7Fz1lzVyhq0t9MRM1iMTd6hq4fZAgMBAAGjggEOMIIBCjALBgNVHQ8E
BAMCBaAwCQYDVR0TBAIwADARBglghkgBhvhCAQEEBAMCBkAwMwYJYIZIAYb4QgEN
BCYWJE9wZW5TU0wgR2VuZXJhdGVkIFNlcnZlciBDZXJ0aWZpY2F0ZTAdBgNVHQ4E
FgQUkhBm470ad6SgtyStZJuRPc9YMMswdAYDVR0jBG0wa4AU9KfAzJFGr2TzkfIn
+Miyb4qHMnOhSKRGMEQxCzAJBgNVBAYTAkRFMQ8wDQYDVQQIDAZIZXNzZW4xFDAS
BgNVBAoMC3ByaXZhY3lpZGVhMQ4wDAYDVQQDDAVDQTAwMYIJAPvI66yDzRIHMBMG
A1UdJQQMMAoGCCsGAQUFBwMBMA0GCSqGSIb3DQEBCwUAA4IBAQC3EeabJZF80ozE
qJHHFxwuUX0TM7eNysNBe1lx+JiLxM8nQWAuXNHehnDEkVsdPyTECl1vE04EHHDZ
yuxIvkENXZi28YvGGdGNgfLcWp4fYyPSM+W0oZF7oNsUdHpEIHE/j8xzbTpbTGNR
U1QifdPidAj/+yxSQb9R37oSImw425WWfaIlTXc6rLC49M21yDNvgnZLVzzz6onb
ifvOKxjSTIelzvMPiE8y8qRVC1SAPpqbNR9W2D+6sFPWAZpoYnuXbWEgaaUDvJRe
g0FWHIqssbN0+YNcQc8qO6++bqDEaUeK741trt1AoZ2Jn/uhwpZiQy6XmfjDqmaS
caKs1mHe
-----END CERTIFICATE-----
