Certificate:
    Data:
        Version: 3 (0x2)
        Serial Number: 268435667 (0x100000d3)
        Signature Algorithm: sha256WithRSAEncryption
        Issuer: C=DE, ST=Hessen, O=privacyidea, CN=CA001
        Validity
            Not Before: Sep 25 09:48:19 2019 GMT
            Not After : Sep 24 09:48:19 2020 GMT
        Subject: C=DE, ST=Hessen, O=privacyidea, CN=usercert
        Subject Public Key Info:
            Public Key Algorithm: rsaEncryption
                RSA Public-Key: (2048 bit)
                Modulus:
                    00:dc:2f:d1:5f:29:97:d4:7c:c3:53:c8:30:bd:4b:
                    67:70:2c:24:6b:b8:5e:eb:21:7a:48:12:56:7c:81:
                    5c:48:75:b6:68:eb:f6:f2:98:4e:50:51:d1:7f:6c:
                    73:f3:0a:a7:ae:be:48:5e:e5:d6:e1:d9:2a:7c:32:
                    6e:4e:fd:08:f6:5a:54:49:23:73:c3:b9:07:18:d1:
                    ef:b3:ac:f8:8a:dc:94:96:a4:90:3a:8e:74:df:e6:
                    0d:37:1b:bd:5b:b7:25:1a:56:39:da:6f:91:aa:5e:
                    1c:74:f3:f9:7c:14:01:83:12:65:76:c7:bb:fe:36:
                    5b:95:e9:72:65:83:ed:3e:98:30:71:fa:87:dd:a3:
                    36:5a:30:03:2e:26:e0:61:d1:bf:02:3f:b6:06:1f:
                    4a:89:28:1c:5c:a2:ff:4e:be:94:e6:8c:e0:da:82:
                    f1:9d:29:32:48:30:73:b4:04:f6:42:1e:be:f7:e2:
                    32:32:27:3c:9d:89:2f:70:3e:85:9a:6f:5c:c5:09:
                    c0:8c:32:2f:72:22:c9:d2:95:1f:b6:ac:72:60:72:
                    b7:82:4d:6b:ce:5b:e3:00:d0:d2:2f:58:c6:e0:10:
                    e5:51:ca:4d:3b:2e:e6:7e:ab:84:d6:56:f1:93:35:
                    a0:93:64:26:81:75:2f:91:b5:16:06:38:0b:db:cc:
                    2d:07
                Exponent: 65537 (0x10001)
        X509v3 extensions:
            X509v3 Key Usage: 
                Digital Signature, Key Encipherment
            X509v3 Basic Constraints: 
                CA:FALSE
            Netscape Cert Type: 
                SSL Server
            Netscape Comment: 
                OpenSSL Generated Server Certificate
            X509v3 Subject Key Identifier: 
                FC:14:D1:F0:4B:8D:00:90:F2:F5:B8:71:9E:4E:97:C3:92:54:AD:0B
            X509v3 Authority Key Identifier: 
                keyid:F4:A7:C0:CC:91:46:AF:64:F3:91:F2:27:F8:C8:B2:6F:8A:87:32:73
                DirName:/C=DE/ST=Hessen/O=privacyidea/CN=CA001
                serial:FB:C8:EB:AC:83:CD:12:07

            X509v3 Extended Key Usage: 
                TLS Web Server Authentication
    Signature Algorithm: sha256WithRSAEncryption
         4a:4b:1a:3b:3f:97:1e:bb:30:c4:21:9c:90:94:e8:40:62:32:
         19:56:b4:4b:40:d2:56:ae:e7:3c:c2:b6:cb:ff:c7:8d:ae:26:
         cf:5a:0b:1c:77:5e:03:79:74:40:95:e7:da:5f:ed:86:c8:7b:
         89:8e:82:fa:b7:d8:6d:08:bf:32:d6:c3:09:58:d3:4d:4e:7f:
         c9:8b:77:27:c4:52:18:38:30:92:89:70:0b:9e:21:a1:ab:f8:
         30:f6:80:48:0a:b8:3a:f8:b4:17:b9:bd:35:9e:fc:fa:03:d3:
         5e:88:67:7e:89:79:80:ff:b0:21:94:63:ff:8e:31:d8:7a:5b:
         59:9c:04:eb:18:5c:09:ba:ce:6f:b4:a9:28:f6:07:d3:5b:4b:
         7c:c5:26:c4:fe:4a:bd:7d:dc:5a:d5:6e:5e:da:9f:1f:ad:09:
         18:26:9a:a5:75:7a:bc:97:dc:ec:20:5c:8d:fd:bb:57:6e:66:
         13:bd:84:73:70:20:78:3c:fe:52:5b:50:c8:db:02:6b:a4:26:
         51:3d:ef:77:a2:0b:ba:6d:fd:81:9c:25:97:91:bc:18:70:d5:
         90:b8:02:9c:0d:55:53:59:a4:17:82:7a:0d:c7:13:e8:0f:88:
         3e:f0:b5:bc:da:49:8f:e2:c2:eb:28:17:c0:7e:ff:e9:69:ed:
         31:14:61:2f
-----BEGIN CERTIFICATE-----
MIIEGTCCAwGgAwIBAgIEEAAA0zANBgkqhkiG9w0BAQsFADBEMQswCQYDVQQGEwJE
RTEPMA0GA1UECAwGSGVzc2VuMRQwEgYDVQQKDAtwcml2YWN5aWRlYTEOMAwGA1UE
AwwFQ0EwMDEwHhcNMTkwOTI1MDk0ODE5WhcNMjAwOTI0MDk0ODE5WjBHMQswCQYD
VQQGEwJERTEPMA0GA1UECAwGSGVzc2VuMRQwEgYDVQQKDAtwcml2YWN5aWRlYTER
MA8GA1UEAwwIdXNlcmNlcnQwggEiMA0GCSqGSIb3DQEBAQUAA4IBDwAwggEKAoIB
AQDcL9FfKZfUfMNTyDC9S2dwLCRruF7rIXpIElZ8gVxIdbZo6/bymE5QUdF/bHPz
Cqeuvkhe5dbh2Sp8Mm5O/Qj2WlRJI3PDuQcY0e+zrPiK3JSWpJA6jnTf5g03G71b
tyUaVjnab5GqXhx08/l8FAGDEmV2x7v+NluV6XJlg+0+mDBx+ofdozZaMAMuJuBh
0b8CP7YGH0qJKBxcov9OvpTmjODagvGdKTJIMHO0BPZCHr734jIyJzydiS9wPoWa
b1zFCcCMMi9yIsnSlR+2rHJgcreCTWvOW+MA0NIvWMbgEOVRyk07LuZ+q4TWVvGT
NaCTZCaBdS+RtRYGOAvbzC0HAgMBAAGjggEOMIIBCjALBgNVHQ8EBAMCBaAwCQYD
VR0TBAIwADARBglghkgBhvhCAQEEBAMCBkAwMwYJYIZIAYb4QgENBCYWJE9wZW5T
U0wgR2VuZXJhdGVkIFNlcnZlciBDZXJ0aWZpY2F0ZTAdBgNVHQ4EFgQU/BTR8EuN
AJDy9bhxnk6Xw5JUrQswdAYDVR0jBG0wa4AU9KfAzJFGr2TzkfIn+Miyb4qHMnOh
SKRGMEQxCzAJBgNVBAYTAkRFMQ8wDQYDVQQIDAZIZXNzZW4xFDASBgNVBAoMC3By
aXZhY3lpZGVhMQ4wDAYDVQQDDAVDQTAwMYIJAPvI66yDzRIHMBMGA1UdJQQMMAoG
CCsGAQUFBwMBMA0GCSqGSIb3DQEBCwUAA4IBAQBKSxo7P5ceuzDEIZyQlOhAYjIZ
VrRLQNJWruc8wrbL/8eNribPWgscd14DeXRAlefaX+2GyHuJjoL6t9htCL8y1sMJ
WNNNTn/Ji3cnxFIYODCSiXALniGhq/gw9oBICrg6+LQXub01nvz6A9NeiGd+iXmA
/7AhlGP/jjHYeltZnATrGFwJus5vtKko9gfTW0t8xSbE/kq9fdxa1W5e2p8frQkY
JpqldXq8l9zsIFyN/btXbmYTvYRzcCB4PP5SW1DI2wJrpCZRPe93ogu6bf2BnCWX
kbwYcNWQuAKcDVVTWaQXgnoNxxPoD4g+8LW82kmP4sLrKBfAfv/pae0xFGEv
-----END CERTIFICATE-----
